

HI-TECH Software PIC LITE Macro Assembler V9.83 build 10920 
                                                                                               Tue Jan 22 10:39:11 2019

HI-TECH Software Omniscient Code Generator (Lite mode) build 10920
     1  0000                     opt subtitle "HI-TECH Software Omniscient Code Generator (Lite mode) build 10920"
     2                           
     3                           opt pagewidth 120
     4                           
     5                           	opt lm
     6                           
     7                           	processor	16F684
     8                           clrc	macro
     9                           	bcf	3,0
    10  0000                     	endm
    11                           clrz	macro
    12                           	bcf	3,2
    13  0000                     	endm
    14                           setc	macro
    15                           	bsf	3,0
    16  0000                     	endm
    17                           setz	macro
    18                           	bsf	3,2
    19  0000                     	endm
    20                           skipc	macro
    21                           	btfss	3,0
    22  0000                     	endm
    23                           skipz	macro
    24                           	btfss	3,2
    25  0000                     	endm
    26                           skipnc	macro
    27                           	btfsc	3,0
    28  0000                     	endm
    29                           skipnz	macro
    30                           	btfsc	3,2
    31  0000                     	endm
    32  0000                     indf	equ	0
    33  0000                     indf0	equ	0
    34  0002                     pc	equ	2
    35  0002                     pcl	equ	2
    36  0003                     status	equ	3
    37  0004                     fsr	equ	4
    38  0004                     fsr0	equ	4
    39  0001                     c	equ	1
    40  0000                     z	equ	0
    41  000A                     pclath	equ	10
    42                           	FNCALL	_main,_POWER_INITIAL
    43                           	FNCALL	_main,_WDT_INITIAL
    44                           	FNCALL	_main,_DelayMs
    45                           	FNCALL	_DelayMs,_DelayUs
    46                           	FNROOT	_main
    47                           	FNCALL	intlevel1,_ISR
    48                           	global	intlevel1
    49                           	FNROOT	intlevel1
    50                           	global	_FSR
    51                           psect	text107,local,class=CODE,delta=2
    52                           global __ptext107
    53  0000                     __ptext107:
    54  0004                     _FSR	set	4
    55                           	DABS	1,4,1	;_FSR
    56                           
    57                           	global	_INDF
    58  0000                     _INDF	set	0
    59                           	DABS	1,0,1	;_INDF
    60                           
    61                           	global	_PCL
    62  0002                     _PCL	set	2
    63                           	DABS	1,2,1	;_PCL
    64                           
    65                           	global	_PCLATH
    66  000A                     _PCLATH	set	10
    67                           	DABS	1,10,1	;_PCLATH
    68                           
    69                           	global	_PORTA
    70  0005                     _PORTA	set	5
    71                           	DABS	1,5,1	;_PORTA
    72                           
    73                           	global	_SFR06
    74  0006                     _SFR06	set	6
    75                           	DABS	1,6,1	;_SFR06
    76                           
    77                           	global	_SFR07
    78  0007                     _SFR07	set	7
    79                           	DABS	1,7,1	;_SFR07
    80                           
    81                           	global	_SFR08
    82  0008                     _SFR08	set	8
    83                           	DABS	1,8,1	;_SFR08
    84                           
    85                           	global	_SFR09
    86  0009                     _SFR09	set	9
    87                           	DABS	1,9,1	;_SFR09
    88                           
    89                           	global	_STATUS
    90  0003                     _STATUS	set	3
    91                           	DABS	1,3,1	;_STATUS
    92                           
    93                           	global	_TMR0
    94  0001                     _TMR0	set	1
    95                           	DABS	1,1,1	;_TMR0
    96                           
    97                           	global	_CCPR1
    98  0013                     _CCPR1	set	19
    99                           	DABS	1,19,2	;_CCPR1
   100                           
   101                           	global	_TMR1
   102  000E                     _TMR1	set	14
   103                           	DABS	1,14,2	;_TMR1
   104                           
   105                           	global	_ADCON0
   106  001F                     _ADCON0	set	31
   107                           	DABS	1,31,1	;_ADCON0
   108                           
   109                           	global	_ADRESH
   110  001E                     _ADRESH	set	30
   111                           	DABS	1,30,1	;_ADRESH
   112                           
   113                           	global	_CCP1CON
   114  0015                     _CCP1CON	set	21
   115                           	DABS	1,21,1	;_CCP1CON
   116                           
   117                           	global	_CCPR1H
   118  0014                     _CCPR1H	set	20
   119                           	DABS	1,20,1	;_CCPR1H
   120                           
   121                           	global	_CCPR1L
   122  0013                     _CCPR1L	set	19
   123                           	DABS	1,19,1	;_CCPR1L
   124                           
   125                           	global	_CMCON0
   126  0019                     _CMCON0	set	25
   127                           	DABS	1,25,1	;_CMCON0
   128                           
   129                           	global	_CMCON1
   130  001A                     _CMCON1	set	26
   131                           	DABS	1,26,1	;_CMCON1
   132                           
   133                           	global	_ECCPAS
   134  0017                     _ECCPAS	set	23
   135                           	DABS	1,23,1	;_ECCPAS
   136                           
   137                           	global	_INTCONbits
   138  000B                     _INTCONbits	set	11
   139                           	DABS	1,11,1	;_INTCONbits
   140                           
   141                           	global	_MSCKCONbits
   142  001B                     _MSCKCONbits	set	27
   143                           	DABS	1,27,1	;_MSCKCONbits
   144                           
   145                           	global	_PCLATHbits
   146  000A                     _PCLATHbits	set	10
   147                           	DABS	1,10,1	;_PCLATHbits
   148                           
   149                           	global	_PIR1bits
   150  000C                     _PIR1bits	set	12
   151                           	DABS	1,12,1	;_PIR1bits
   152                           
   153                           	global	_PORTAbits
   154  0005                     _PORTAbits	set	5
   155                           	DABS	1,5,1	;_PORTAbits
   156                           
   157                           	global	_PORTC
   158  0007                     _PORTC	set	7
   159                           	DABS	1,7,1	;_PORTC
   160                           
   161                           	global	_PWM1CON
   162  0016                     _PWM1CON	set	22
   163                           	DABS	1,22,1	;_PWM1CON
   164                           
   165                           	global	_SFR00
   166  0000                     _SFR00	set	0
   167                           	DABS	1,0,1	;_SFR00
   168                           
   169                           	global	_SFR01
   170  0001                     _SFR01	set	1
   171                           	DABS	1,1,1	;_SFR01
   172                           
   173                           	global	_SFR02
   174  0002                     _SFR02	set	2
   175                           	DABS	1,2,1	;_SFR02
   176                           
   177                           	global	_SFR03
   178  0003                     _SFR03	set	3
   179                           	DABS	1,3,1	;_SFR03
   180                           
   181                           	global	_SFR04
   182  0004                     _SFR04	set	4
   183                           	DABS	1,4,1	;_SFR04
   184                           
   185                           	global	_SFR05
   186  0005                     _SFR05	set	5
   187                           	DABS	1,5,1	;_SFR05
   188                           
   189                           	global	_SFR0A
   190  000A                     _SFR0A	set	10
   191                           	DABS	1,10,1	;_SFR0A
   192                           
   193                           	global	_SFR0B
   194  000B                     _SFR0B	set	11
   195                           	DABS	1,11,1	;_SFR0B
   196                           
   197                           	global	_SFR0C
   198  000C                     _SFR0C	set	12
   199                           	DABS	1,12,1	;_SFR0C
   200                           
   201                           	global	_SFR11
   202  0011                     _SFR11	set	17
   203                           	DABS	1,17,1	;_SFR11
   204                           
   205                           	global	_SFR12
   206  0012                     _SFR12	set	18
   207                           	DABS	1,18,1	;_SFR12
   208                           
   209                           	global	_SFR18
   210  0018                     _SFR18	set	24
   211                           	DABS	1,24,1	;_SFR18
   212                           
   213                           	global	_SFR1B
   214  001B                     _SFR1B	set	27
   215                           	DABS	1,27,1	;_SFR1B
   216                           
   217                           	global	_SFR1C
   218  001C                     _SFR1C	set	28
   219                           	DABS	1,28,1	;_SFR1C
   220                           
   221                           	global	_SFR1D
   222  001D                     _SFR1D	set	29
   223                           	DABS	1,29,1	;_SFR1D
   224                           
   225                           	global	_SOSCPRHbits
   226  001D                     _SOSCPRHbits	set	29
   227                           	DABS	1,29,1	;_SOSCPRHbits
   228                           
   229                           	global	_STATUSbits
   230  0003                     _STATUSbits	set	3
   231                           	DABS	1,3,1	;_STATUSbits
   232                           
   233                           	global	_T1CON
   234  0010                     _T1CON	set	16
   235                           	DABS	1,16,1	;_T1CON
   236                           
   237                           	global	_T2CONbits
   238  0012                     _T2CONbits	set	18
   239                           	DABS	1,18,1	;_T2CONbits
   240                           
   241                           	global	_TMR1H
   242  000F                     _TMR1H	set	15
   243                           	DABS	1,15,1	;_TMR1H
   244                           
   245                           	global	_TMR1L
   246  000E                     _TMR1L	set	14
   247                           	DABS	1,14,1	;_TMR1L
   248                           
   249                           	global	_WDTCONbits
   250  0018                     _WDTCONbits	set	24
   251                           	DABS	1,24,1	;_WDTCONbits
   252                           
   253                           	global	_ADFM
   254  00FF                     _ADFM	set	255
   255                           	DABS	1,31,1	;_ADFM
   256                           
   257                           	global	_ADIF
   258  0066                     _ADIF	set	102
   259                           	DABS	1,12,1	;_ADIF
   260                           
   261                           	global	_ADON
   262  00F8                     _ADON	set	248
   263                           	DABS	1,31,1	;_ADON
   264                           
   265                           	global	_C
   266  0018                     _C	set	24
   267                           	DABS	1,3,1	;_C
   268                           
   269                           	global	_C1IF
   270  0063                     _C1IF	set	99
   271                           	DABS	1,12,1	;_C1IF
   272                           
   273                           	global	_C1INV
   274  00CC                     _C1INV	set	204
   275                           	DABS	1,25,1	;_C1INV
   276                           
   277                           	global	_C1OUT
   278  00CE                     _C1OUT	set	206
   279                           	DABS	1,25,1	;_C1OUT
   280                           
   281                           	global	_C2IF
   282  0064                     _C2IF	set	100
   283                           	DABS	1,12,1	;_C2IF
   284                           
   285                           	global	_C2INV
   286  00CD                     _C2INV	set	205
   287                           	DABS	1,25,1	;_C2INV
   288                           
   289                           	global	_C2OUT
   290  00CF                     _C2OUT	set	207
   291                           	DABS	1,25,1	;_C2OUT
   292                           
   293                           	global	_C2SYNC
   294  00D0                     _C2SYNC	set	208
   295                           	DABS	1,26,1	;_C2SYNC
   296                           
   297                           	global	_CARRY
   298  0018                     _CARRY	set	24
   299                           	DABS	1,3,1	;_CARRY
   300                           
   301                           	global	_CCP1IF
   302  0065                     _CCP1IF	set	101
   303                           	DABS	1,12,1	;_CCP1IF
   304                           
   305                           	global	_CCP1M0
   306  00A8                     _CCP1M0	set	168
   307                           	DABS	1,21,1	;_CCP1M0
   308                           
   309                           	global	_CCP1M1
   310  00A9                     _CCP1M1	set	169
   311                           	DABS	1,21,1	;_CCP1M1
   312                           
   313                           	global	_CCP1M2
   314  00AA                     _CCP1M2	set	170
   315                           	DABS	1,21,1	;_CCP1M2
   316                           
   317                           	global	_CCP1M3
   318  00AB                     _CCP1M3	set	171
   319                           	DABS	1,21,1	;_CCP1M3
   320                           
   321                           	global	_CHS0
   322  00FA                     _CHS0	set	250
   323                           	DABS	1,31,1	;_CHS0
   324                           
   325                           	global	_CHS1
   326  00FB                     _CHS1	set	251
   327                           	DABS	1,31,1	;_CHS1
   328                           
   329                           	global	_CHS2
   330  00FC                     _CHS2	set	252
   331                           	DABS	1,31,1	;_CHS2
   332                           
   333                           	global	_CIS
   334  00CB                     _CIS	set	203
   335                           	DABS	1,25,1	;_CIS
   336                           
   337                           	global	_CKCNTI
   338  00D9                     _CKCNTI	set	217
   339                           	DABS	1,27,1	;_CKCNTI
   340                           
   341                           	global	_CKMAVG
   342  00DA                     _CKMAVG	set	218
   343                           	DABS	1,27,1	;_CKMAVG
   344                           
   345                           	global	_CKMEAIF
   346  0066                     _CKMEAIF	set	102
   347                           	DABS	1,12,1	;_CKMEAIF
   348                           
   349                           	global	_CM0
   350  00C8                     _CM0	set	200
   351                           	DABS	1,25,1	;_CM0
   352                           
   353                           	global	_CM1
   354  00C9                     _CM1	set	201
   355                           	DABS	1,25,1	;_CM1
   356                           
   357                           	global	_CM2
   358  00CA                     _CM2	set	202
   359                           	DABS	1,25,1	;_CM2
   360                           
   361                           	global	_DC
   362  0019                     _DC	set	25
   363                           	DABS	1,3,1	;_DC
   364                           
   365                           	global	_DC1B0
   366  00AC                     _DC1B0	set	172
   367                           	DABS	1,21,1	;_DC1B0
   368                           
   369                           	global	_DC1B1
   370  00AD                     _DC1B1	set	173
   371                           	DABS	1,21,1	;_DC1B1
   372                           
   373                           	global	_ECCPAS0
   374  00BC                     _ECCPAS0	set	188
   375                           	DABS	1,23,1	;_ECCPAS0
   376                           
   377                           	global	_ECCPAS1
   378  00BD                     _ECCPAS1	set	189
   379                           	DABS	1,23,1	;_ECCPAS1
   380                           
   381                           	global	_ECCPAS2
   382  00BE                     _ECCPAS2	set	190
   383                           	DABS	1,23,1	;_ECCPAS2
   384                           
   385                           	global	_ECCPASE
   386  00BF                     _ECCPASE	set	191
   387                           	DABS	1,23,1	;_ECCPASE
   388                           
   389                           	global	_ECCPIF
   390  0065                     _ECCPIF	set	101
   391                           	DABS	1,12,1	;_ECCPIF
   392                           
   393                           	global	_EEIF
   394  0067                     _EEIF	set	103
   395                           	DABS	1,12,1	;_EEIF
   396                           
   397                           	global	_GIE
   398  005F                     _GIE	set	95
   399                           	DABS	1,11,1	;_GIE
   400                           
   401                           	global	_GO
   402  00F9                     _GO	set	249
   403                           	DABS	1,31,1	;_GO
   404                           
   405                           	global	_GO_DONE
   406  00F9                     _GO_DONE	set	249
   407                           	DABS	1,31,1	;_GO_DONE
   408                           
   409                           	global	_GO_nDONE
   410  00F9                     _GO_nDONE	set	249
   411                           	DABS	1,31,1	;_GO_nDONE
   412                           
   413                           	global	_HC
   414  0019                     _HC	set	25
   415                           	DABS	1,3,1	;_HC
   416                           
   417                           	global	_INTE
   418  005C                     _INTE	set	92
   419                           	DABS	1,11,1	;_INTE
   420                           
   421                           	global	_INTF
   422  0059                     _INTF	set	89
   423                           	DABS	1,11,1	;_INTF
   424                           
   425                           	global	_IRP
   426  001F                     _IRP	set	31
   427                           	DABS	1,3,1	;_IRP
   428                           
   429                           	global	_OSFIF
   430  0062                     _OSFIF	set	98
   431                           	DABS	1,12,1	;_OSFIF
   432                           
   433                           	global	_P1M0
   434  00AE                     _P1M0	set	174
   435                           	DABS	1,21,1	;_P1M0
   436                           
   437                           	global	_P1M1
   438  00AF                     _P1M1	set	175
   439                           	DABS	1,21,1	;_P1M1
   440                           
   441                           	global	_PA0
   442  0028                     _PA0	set	40
   443                           	DABS	1,5,1	;_PA0
   444                           
   445                           	global	_PA1
   446  0029                     _PA1	set	41
   447                           	DABS	1,5,1	;_PA1
   448                           
   449                           	global	_PA2
   450  002A                     _PA2	set	42
   451                           	DABS	1,5,1	;_PA2
   452                           
   453                           	global	_PA3
   454  002B                     _PA3	set	43
   455                           	DABS	1,5,1	;_PA3
   456                           
   457                           	global	_PA4
   458  002C                     _PA4	set	44
   459                           	DABS	1,5,1	;_PA4
   460                           
   461                           	global	_PA5
   462  002D                     _PA5	set	45
   463                           	DABS	1,5,1	;_PA5
   464                           
   465                           	global	_PAGE
   466  001D                     _PAGE	set	29
   467                           	DABS	1,3,1	;_PAGE
   468                           
   469                           	global	_PAIE
   470  005B                     _PAIE	set	91
   471                           	DABS	1,11,1	;_PAIE
   472                           
   473                           	global	_PAIF
   474  0058                     _PAIF	set	88
   475                           	DABS	1,11,1	;_PAIF
   476                           
   477                           	global	_PDC0
   478  00B0                     _PDC0	set	176
   479                           	DABS	1,22,1	;_PDC0
   480                           
   481                           	global	_PDC1
   482  00B1                     _PDC1	set	177
   483                           	DABS	1,22,1	;_PDC1
   484                           
   485                           	global	_PDC2
   486  00B2                     _PDC2	set	178
   487                           	DABS	1,22,1	;_PDC2
   488                           
   489                           	global	_PDC3
   490  00B3                     _PDC3	set	179
   491                           	DABS	1,22,1	;_PDC3
   492                           
   493                           	global	_PDC4
   494  00B4                     _PDC4	set	180
   495                           	DABS	1,22,1	;_PDC4
   496                           
   497                           	global	_PDC5
   498  00B5                     _PDC5	set	181
   499                           	DABS	1,22,1	;_PDC5
   500                           
   501                           	global	_PDC6
   502  00B6                     _PDC6	set	182
   503                           	DABS	1,22,1	;_PDC6
   504                           
   505                           	global	_PEIE
   506  005E                     _PEIE	set	94
   507                           	DABS	1,11,1	;_PEIE
   508                           
   509                           	global	_PRSEN
   510  00B7                     _PRSEN	set	183
   511                           	DABS	1,22,1	;_PRSEN
   512                           
   513                           	global	_PSSAC0
   514  00BA                     _PSSAC0	set	186
   515                           	DABS	1,23,1	;_PSSAC0
   516                           
   517                           	global	_PSSAC1
   518  00BB                     _PSSAC1	set	187
   519                           	DABS	1,23,1	;_PSSAC1
   520                           
   521                           	global	_PSSBD0
   522  00B8                     _PSSBD0	set	184
   523                           	DABS	1,23,1	;_PSSBD0
   524                           
   525                           	global	_PSSBD1
   526  00B9                     _PSSBD1	set	185
   527                           	DABS	1,23,1	;_PSSBD1
   528                           
   529                           	global	_RA0
   530  0028                     _RA0	set	40
   531                           	DABS	1,5,1	;_RA0
   532                           
   533                           	global	_RA1
   534  0029                     _RA1	set	41
   535                           	DABS	1,5,1	;_RA1
   536                           
   537                           	global	_RA2
   538  002A                     _RA2	set	42
   539                           	DABS	1,5,1	;_RA2
   540                           
   541                           	global	_RA3
   542  002B                     _RA3	set	43
   543                           	DABS	1,5,1	;_RA3
   544                           
   545                           	global	_RA4
   546  002C                     _RA4	set	44
   547                           	DABS	1,5,1	;_RA4
   548                           
   549                           	global	_RA5
   550  002D                     _RA5	set	45
   551                           	DABS	1,5,1	;_RA5
   552                           
   553                           	global	_RAIE
   554  005B                     _RAIE	set	91
   555                           	DABS	1,11,1	;_RAIE
   556                           
   557                           	global	_RAIF
   558  0058                     _RAIF	set	88
   559                           	DABS	1,11,1	;_RAIF
   560                           
   561                           	global	_RC0
   562  0038                     _RC0	set	56
   563                           	DABS	1,7,1	;_RC0
   564                           
   565                           	global	_RC1
   566  0039                     _RC1	set	57
   567                           	DABS	1,7,1	;_RC1
   568                           
   569                           	global	_RC2
   570  003A                     _RC2	set	58
   571                           	DABS	1,7,1	;_RC2
   572                           
   573                           	global	_RC3
   574  003B                     _RC3	set	59
   575                           	DABS	1,7,1	;_RC3
   576                           
   577                           	global	_RC4
   578  003C                     _RC4	set	60
   579                           	DABS	1,7,1	;_RC4
   580                           
   581                           	global	_RC5
   582  003D                     _RC5	set	61
   583                           	DABS	1,7,1	;_RC5
   584                           
   585                           	global	_RP
   586  001D                     _RP	set	29
   587                           	DABS	1,3,1	;_RP
   588                           
   589                           	global	_RP0
   590  001D                     _RP0	set	29
   591                           	DABS	1,3,1	;_RP0
   592                           
   593                           	global	_RP1
   594  001E                     _RP1	set	30
   595                           	DABS	1,3,1	;_RP1
   596                           
   597                           	global	_SLVREN
   598  00DC                     _SLVREN	set	220
   599                           	DABS	1,27,1	;_SLVREN
   600                           
   601                           	global	_SWDTEN
   602  00C0                     _SWDTEN	set	192
   603                           	DABS	1,24,1	;_SWDTEN
   604                           
   605                           	global	_T0IE
   606  005D                     _T0IE	set	93
   607                           	DABS	1,11,1	;_T0IE
   608                           
   609                           	global	_T0IF
   610  005A                     _T0IF	set	90
   611                           	DABS	1,11,1	;_T0IF
   612                           
   613                           	global	_T1CKPS0
   614  0084                     _T1CKPS0	set	132
   615                           	DABS	1,16,1	;_T1CKPS0
   616                           
   617                           	global	_T1CKPS1
   618  0085                     _T1CKPS1	set	133
   619                           	DABS	1,16,1	;_T1CKPS1
   620                           
   621                           	global	_T1GINV
   622  0087                     _T1GINV	set	135
   623                           	DABS	1,16,1	;_T1GINV
   624                           
   625                           	global	_T1GSS
   626  00D1                     _T1GSS	set	209
   627                           	DABS	1,26,1	;_T1GSS
   628                           
   629                           	global	_T1IF
   630  0060                     _T1IF	set	96
   631                           	DABS	1,12,1	;_T1IF
   632                           
   633                           	global	_T1OSCEN
   634  0083                     _T1OSCEN	set	131
   635                           	DABS	1,16,1	;_T1OSCEN
   636                           
   637                           	global	_T2CKPS0
   638  0090                     _T2CKPS0	set	144
   639                           	DABS	1,18,1	;_T2CKPS0
   640                           
   641                           	global	_T2CKPS1
   642  0091                     _T2CKPS1	set	145
   643                           	DABS	1,18,1	;_T2CKPS1
   644                           
   645                           	global	_T2IF
   646  0061                     _T2IF	set	97
   647                           	DABS	1,12,1	;_T2IF
   648                           
   649                           	global	_TMR0IE
   650  005D                     _TMR0IE	set	93
   651                           	DABS	1,11,1	;_TMR0IE
   652                           
   653                           	global	_TMR0IF
   654  005A                     _TMR0IF	set	90
   655                           	DABS	1,11,1	;_TMR0IF
   656                           
   657                           	global	_TMR1CS
   658  0081                     _TMR1CS	set	129
   659                           	DABS	1,16,1	;_TMR1CS
   660                           
   661                           	global	_TMR1GE
   662  0086                     _TMR1GE	set	134
   663                           	DABS	1,16,1	;_TMR1GE
   664                           
   665                           	global	_TMR1IF
   666  0060                     _TMR1IF	set	96
   667                           	DABS	1,12,1	;_TMR1IF
   668                           
   669                           	global	_TMR1ON
   670  0080                     _TMR1ON	set	128
   671                           	DABS	1,16,1	;_TMR1ON
   672                           
   673                           	global	_TMR2IF
   674  0061                     _TMR2IF	set	97
   675                           	DABS	1,12,1	;_TMR2IF
   676                           
   677                           	global	_TMR2ON
   678  0092                     _TMR2ON	set	146
   679                           	DABS	1,18,1	;_TMR2ON
   680                           
   681                           	global	_TOUTPS0
   682  0093                     _TOUTPS0	set	147
   683                           	DABS	1,18,1	;_TOUTPS0
   684                           
   685                           	global	_TOUTPS1
   686  0094                     _TOUTPS1	set	148
   687                           	DABS	1,18,1	;_TOUTPS1
   688                           
   689                           	global	_TOUTPS2
   690  0095                     _TOUTPS2	set	149
   691                           	DABS	1,18,1	;_TOUTPS2
   692                           
   693                           	global	_TOUTPS3
   694  0096                     _TOUTPS3	set	150
   695                           	DABS	1,18,1	;_TOUTPS3
   696                           
   697                           	global	_VCFG
   698  00FE                     _VCFG	set	254
   699                           	DABS	1,31,1	;_VCFG
   700                           
   701                           	global	_WDTPS0
   702  00C1                     _WDTPS0	set	193
   703                           	DABS	1,24,1	;_WDTPS0
   704                           
   705                           	global	_WDTPS1
   706  00C2                     _WDTPS1	set	194
   707                           	DABS	1,24,1	;_WDTPS1
   708                           
   709                           	global	_WDTPS2
   710  00C3                     _WDTPS2	set	195
   711                           	DABS	1,24,1	;_WDTPS2
   712                           
   713                           	global	_WDTPS3
   714  00C4                     _WDTPS3	set	196
   715                           	DABS	1,24,1	;_WDTPS3
   716                           
   717                           	global	_Z
   718  001A                     _Z	set	26
   719                           	DABS	1,3,1	;_Z
   720                           
   721                           	global	_ZERO
   722  001A                     _ZERO	set	26
   723                           	DABS	1,3,1	;_ZERO
   724                           
   725                           	global	_nDONE
   726  00F9                     _nDONE	set	249
   727                           	DABS	1,31,1	;_nDONE
   728                           
   729                           	global	_nPD
   730  001B                     _nPD	set	27
   731                           	DABS	1,3,1	;_nPD
   732                           
   733                           	global	_nPF
   734  001B                     _nPF	set	27
   735                           	DABS	1,3,1	;_nPF
   736                           
   737                           	global	_nT1SYNC
   738  0082                     _nT1SYNC	set	130
   739                           	DABS	1,16,1	;_nT1SYNC
   740                           
   741                           	global	_nTF
   742  001C                     _nTF	set	28
   743                           	DABS	1,3,1	;_nTF
   744                           
   745                           	global	_nTO
   746  001C                     _nTO	set	28
   747                           	DABS	1,3,1	;_nTO
   748                           
   749                           	global	_OPTION
   750  0081                     _OPTION	set	129
   751                           	DABS	1,129,1	;_OPTION
   752                           
   753                           	global	_SFR80
   754  0080                     _SFR80	set	128
   755                           	DABS	1,128,1	;_SFR80
   756                           
   757                           	global	_ADCON1
   758  009F                     _ADCON1	set	159
   759                           	DABS	1,159,1	;_ADCON1
   760                           
   761                           	global	_ADRESL
   762  009E                     _ADRESL	set	158
   763                           	DABS	1,158,1	;_ADRESL
   764                           
   765                           	global	_ANSEL
   766  0091                     _ANSEL	set	145
   767                           	DABS	1,145,1	;_ANSEL
   768                           
   769                           	global	_EECON1bits
   770  009C                     _EECON1bits	set	156
   771                           	DABS	1,156,1	;_EECON1bits
   772                           
   773                           	global	_EECON2bits
   774  009D                     _EECON2bits	set	157
   775                           	DABS	1,157,1	;_EECON2bits
   776                           
   777                           	global	_EEDATA
   778  009A                     _EEDATA	set	154
   779                           	DABS	1,154,1	;_EEDATA
   780                           
   781                           	global	_IOC
   782  0096                     _IOC	set	150
   783                           	DABS	1,150,1	;_IOC
   784                           
   785                           	global	_IOCAbits
   786  0096                     _IOCAbits	set	150
   787                           	DABS	1,150,1	;_IOCAbits
   788                           
   789                           	global	_OPTION_REG
   790  0081                     _OPTION_REG	set	129
   791                           	DABS	1,129,1	;_OPTION_REG
   792                           
   793                           	global	_OPTIONbits
   794  0081                     _OPTIONbits	set	129
   795                           	DABS	1,129,1	;_OPTIONbits
   796                           
   797                           	global	_OSCCONbits
   798  008F                     _OSCCONbits	set	143
   799                           	DABS	1,143,1	;_OSCCONbits
   800                           
   801                           	global	_OSCTUNE
   802  0090                     _OSCTUNE	set	144
   803                           	DABS	1,144,1	;_OSCTUNE
   804                           
   805                           	global	_PCONbits
   806  008E                     _PCONbits	set	142
   807                           	DABS	1,142,1	;_PCONbits
   808                           
   809                           	global	_PIE1bits
   810  008C                     _PIE1bits	set	140
   811                           	DABS	1,140,1	;_PIE1bits
   812                           
   813                           	global	_SFR81
   814  0081                     _SFR81	set	129
   815                           	DABS	1,129,1	;_SFR81
   816                           
   817                           	global	_SFR85
   818  0085                     _SFR85	set	133
   819                           	DABS	1,133,1	;_SFR85
   820                           
   821                           	global	_SFR8C
   822  008C                     _SFR8C	set	140
   823                           	DABS	1,140,1	;_SFR8C
   824                           
   825                           	global	_SFR8E
   826  008E                     _SFR8E	set	142
   827                           	DABS	1,142,1	;_SFR8E
   828                           
   829                           	global	_SFR8F
   830  008F                     _SFR8F	set	143
   831                           	DABS	1,143,1	;_SFR8F
   832                           
   833                           	global	_SFR92
   834  0092                     _SFR92	set	146
   835                           	DABS	1,146,1	;_SFR92
   836                           
   837                           	global	_SFR95
   838  0095                     _SFR95	set	149
   839                           	DABS	1,149,1	;_SFR95
   840                           
   841                           	global	_SFR96
   842  0096                     _SFR96	set	150
   843                           	DABS	1,150,1	;_SFR96
   844                           
   845                           	global	_SFR9A
   846  009A                     _SFR9A	set	154
   847                           	DABS	1,154,1	;_SFR9A
   848                           
   849                           	global	_SFR9B
   850  009B                     _SFR9B	set	155
   851                           	DABS	1,155,1	;_SFR9B
   852                           
   853                           	global	_SFR9C
   854  009C                     _SFR9C	set	156
   855                           	DABS	1,156,1	;_SFR9C
   856                           
   857                           	global	_SFR9D
   858  009D                     _SFR9D	set	157
   859                           	DABS	1,157,1	;_SFR9D
   860                           
   861                           	global	_TRISAbits
   862  0085                     _TRISAbits	set	133
   863                           	DABS	1,133,1	;_TRISAbits
   864                           
   865                           	global	_TRISC
   866  0087                     _TRISC	set	135
   867                           	DABS	1,135,1	;_TRISC
   868                           
   869                           	global	_VRCON
   870  0099                     _VRCON	set	153
   871                           	DABS	1,153,1	;_VRCON
   872                           
   873                           	global	_WPU
   874  0095                     _WPU	set	149
   875                           	DABS	1,149,1	;_WPU
   876                           
   877                           	global	_WPUAbits
   878  0095                     _WPUAbits	set	149
   879                           	DABS	1,149,1	;_WPUAbits
   880                           
   881                           	global	_ADCS0
   882  04FC                     _ADCS0	set	1276
   883                           	DABS	1,159,1	;_ADCS0
   884                           
   885                           	global	_ADCS1
   886  04FD                     _ADCS1	set	1277
   887                           	DABS	1,159,1	;_ADCS1
   888                           
   889                           	global	_ADCS2
   890  04FE                     _ADCS2	set	1278
   891                           	DABS	1,159,1	;_ADCS2
   892                           
   893                           	global	_ADIE
   894  0466                     _ADIE	set	1126
   895                           	DABS	1,140,1	;_ADIE
   896                           
   897                           	global	_ANS0
   898  0488                     _ANS0	set	1160
   899                           	DABS	1,145,1	;_ANS0
   900                           
   901                           	global	_ANS1
   902  0489                     _ANS1	set	1161
   903                           	DABS	1,145,1	;_ANS1
   904                           
   905                           	global	_ANS2
   906  048A                     _ANS2	set	1162
   907                           	DABS	1,145,1	;_ANS2
   908                           
   909                           	global	_ANS3
   910  048B                     _ANS3	set	1163
   911                           	DABS	1,145,1	;_ANS3
   912                           
   913                           	global	_ANS4
   914  048C                     _ANS4	set	1164
   915                           	DABS	1,145,1	;_ANS4
   916                           
   917                           	global	_ANS5
   918  048D                     _ANS5	set	1165
   919                           	DABS	1,145,1	;_ANS5
   920                           
   921                           	global	_ANS6
   922  048E                     _ANS6	set	1166
   923                           	DABS	1,145,1	;_ANS6
   924                           
   925                           	global	_ANS7
   926  048F                     _ANS7	set	1167
   927                           	DABS	1,145,1	;_ANS7
   928                           
   929                           	global	_C1IE
   930  0463                     _C1IE	set	1123
   931                           	DABS	1,140,1	;_C1IE
   932                           
   933                           	global	_C2IE
   934  0464                     _C2IE	set	1124
   935                           	DABS	1,140,1	;_C2IE
   936                           
   937                           	global	_CCP1IE
   938  0465                     _CCP1IE	set	1125
   939                           	DABS	1,140,1	;_CCP1IE
   940                           
   941                           	global	_CKMEAIE
   942  0466                     _CKMEAIE	set	1126
   943                           	DABS	1,140,1	;_CKMEAIE
   944                           
   945                           	global	_ECCPIE
   946  0465                     _ECCPIE	set	1125
   947                           	DABS	1,140,1	;_ECCPIE
   948                           
   949                           	global	_EEIE
   950  0467                     _EEIE	set	1127
   951                           	DABS	1,140,1	;_EEIE
   952                           
   953                           	global	_HFIOFR
   954  047A                     _HFIOFR	set	1146
   955                           	DABS	1,143,1	;_HFIOFR
   956                           
   957                           	global	_HTS
   958  047A                     _HTS	set	1146
   959                           	DABS	1,143,1	;_HTS
   960                           
   961                           	global	_INTEDG
   962  040E                     _INTEDG	set	1038
   963                           	DABS	1,129,1	;_INTEDG
   964                           
   965                           	global	_IOC0
   966  04B0                     _IOC0	set	1200
   967                           	DABS	1,150,1	;_IOC0
   968                           
   969                           	global	_IOC1
   970  04B1                     _IOC1	set	1201
   971                           	DABS	1,150,1	;_IOC1
   972                           
   973                           	global	_IOC2
   974  04B2                     _IOC2	set	1202
   975                           	DABS	1,150,1	;_IOC2
   976                           
   977                           	global	_IOC3
   978  04B3                     _IOC3	set	1203
   979                           	DABS	1,150,1	;_IOC3
   980                           
   981                           	global	_IOC4
   982  04B4                     _IOC4	set	1204
   983                           	DABS	1,150,1	;_IOC4
   984                           
   985                           	global	_IOC5
   986  04B5                     _IOC5	set	1205
   987                           	DABS	1,150,1	;_IOC5
   988                           
   989                           	global	_IOCA0
   990  04B0                     _IOCA0	set	1200
   991                           	DABS	1,150,1	;_IOCA0
   992                           
   993                           	global	_IOCA1
   994  04B1                     _IOCA1	set	1201
   995                           	DABS	1,150,1	;_IOCA1
   996                           
   997                           	global	_IOCA2
   998  04B2                     _IOCA2	set	1202
   999                           	DABS	1,150,1	;_IOCA2
  1000                           
  1001                           	global	_IOCA3
  1002  04B3                     _IOCA3	set	1203
  1003                           	DABS	1,150,1	;_IOCA3
  1004                           
  1005                           	global	_IOCA4
  1006  04B4                     _IOCA4	set	1204
  1007                           	DABS	1,150,1	;_IOCA4
  1008                           
  1009                           	global	_IOCA5
  1010  04B5                     _IOCA5	set	1205
  1011                           	DABS	1,150,1	;_IOCA5
  1012                           
  1013                           	global	_IRCF0
  1014  047C                     _IRCF0	set	1148
  1015                           	DABS	1,143,1	;_IRCF0
  1016                           
  1017                           	global	_IRCF1
  1018  047D                     _IRCF1	set	1149
  1019                           	DABS	1,143,1	;_IRCF1
  1020                           
  1021                           	global	_IRCF2
  1022  047E                     _IRCF2	set	1150
  1023                           	DABS	1,143,1	;_IRCF2
  1024                           
  1025                           	global	_LFIOFR
  1026  0479                     _LFIOFR	set	1145
  1027                           	DABS	1,143,1	;_LFIOFR
  1028                           
  1029                           	global	_LFMOD
  1030  047F                     _LFMOD	set	1151
  1031                           	DABS	1,143,1	;_LFMOD
  1032                           
  1033                           	global	_LTS
  1034  0479                     _LTS	set	1145
  1035                           	DABS	1,143,1	;_LTS
  1036                           
  1037                           	global	_OSFIE
  1038  0462                     _OSFIE	set	1122
  1039                           	DABS	1,140,1	;_OSFIE
  1040                           
  1041                           	global	_OSTS
  1042  047B                     _OSTS	set	1147
  1043                           	DABS	1,143,1	;_OSTS
  1044                           
  1045                           	global	_PS0
  1046  0408                     _PS0	set	1032
  1047                           	DABS	1,129,1	;_PS0
  1048                           
  1049                           	global	_PS1
  1050  0409                     _PS1	set	1033
  1051                           	DABS	1,129,1	;_PS1
  1052                           
  1053                           	global	_PS2
  1054  040A                     _PS2	set	1034
  1055                           	DABS	1,129,1	;_PS2
  1056                           
  1057                           	global	_PSA
  1058  040B                     _PSA	set	1035
  1059                           	DABS	1,129,1	;_PSA
  1060                           
  1061                           	global	_RD
  1062  04E0                     _RD	set	1248
  1063                           	DABS	1,156,1	;_RD
  1064                           
  1065                           	global	_SBODEN
  1066  0474                     _SBODEN	set	1140
  1067                           	DABS	1,142,1	;_SBODEN
  1068                           
  1069                           	global	_SBOREN
  1070  0474                     _SBOREN	set	1140
  1071                           	DABS	1,142,1	;_SBOREN
  1072                           
  1073                           	global	_SCS
  1074  0478                     _SCS	set	1144
  1075                           	DABS	1,143,1	;_SCS
  1076                           
  1077                           	global	_T0CS
  1078  040D                     _T0CS	set	1037
  1079                           	DABS	1,129,1	;_T0CS
  1080                           
  1081                           	global	_T0SE
  1082  040C                     _T0SE	set	1036
  1083                           	DABS	1,129,1	;_T0SE
  1084                           
  1085                           	global	_T1IE
  1086  0460                     _T1IE	set	1120
  1087                           	DABS	1,140,1	;_T1IE
  1088                           
  1089                           	global	_T2IE
  1090  0461                     _T2IE	set	1121
  1091                           	DABS	1,140,1	;_T2IE
  1092                           
  1093                           	global	_TMR1IE
  1094  0460                     _TMR1IE	set	1120
  1095                           	DABS	1,140,1	;_TMR1IE
  1096                           
  1097                           	global	_TMR2IE
  1098  0461                     _TMR2IE	set	1121
  1099                           	DABS	1,140,1	;_TMR2IE
  1100                           
  1101                           	global	_TRISA0
  1102  0428                     _TRISA0	set	1064
  1103                           	DABS	1,133,1	;_TRISA0
  1104                           
  1105                           	global	_TRISA1
  1106  0429                     _TRISA1	set	1065
  1107                           	DABS	1,133,1	;_TRISA1
  1108                           
  1109                           	global	_TRISA2
  1110  042A                     _TRISA2	set	1066
  1111                           	DABS	1,133,1	;_TRISA2
  1112                           
  1113                           	global	_TRISA3
  1114  042B                     _TRISA3	set	1067
  1115                           	DABS	1,133,1	;_TRISA3
  1116                           
  1117                           	global	_TRISA4
  1118  042C                     _TRISA4	set	1068
  1119                           	DABS	1,133,1	;_TRISA4
  1120                           
  1121                           	global	_TRISA5
  1122  042D                     _TRISA5	set	1069
  1123                           	DABS	1,133,1	;_TRISA5
  1124                           
  1125                           	global	_TRISC0
  1126  0438                     _TRISC0	set	1080
  1127                           	DABS	1,135,1	;_TRISC0
  1128                           
  1129                           	global	_TRISC1
  1130  0439                     _TRISC1	set	1081
  1131                           	DABS	1,135,1	;_TRISC1
  1132                           
  1133                           	global	_TRISC2
  1134  043A                     _TRISC2	set	1082
  1135                           	DABS	1,135,1	;_TRISC2
  1136                           
  1137                           	global	_TRISC3
  1138  043B                     _TRISC3	set	1083
  1139                           	DABS	1,135,1	;_TRISC3
  1140                           
  1141                           	global	_TRISC4
  1142  043C                     _TRISC4	set	1084
  1143                           	DABS	1,135,1	;_TRISC4
  1144                           
  1145                           	global	_TRISC5
  1146  043D                     _TRISC5	set	1085
  1147                           	DABS	1,135,1	;_TRISC5
  1148                           
  1149                           	global	_TUN0
  1150  0480                     _TUN0	set	1152
  1151                           	DABS	1,144,1	;_TUN0
  1152                           
  1153                           	global	_TUN1
  1154  0481                     _TUN1	set	1153
  1155                           	DABS	1,144,1	;_TUN1
  1156                           
  1157                           	global	_TUN2
  1158  0482                     _TUN2	set	1154
  1159                           	DABS	1,144,1	;_TUN2
  1160                           
  1161                           	global	_TUN3
  1162  0483                     _TUN3	set	1155
  1163                           	DABS	1,144,1	;_TUN3
  1164                           
  1165                           	global	_TUN4
  1166  0484                     _TUN4	set	1156
  1167                           	DABS	1,144,1	;_TUN4
  1168                           
  1169                           	global	_ULPWUE
  1170  0475                     _ULPWUE	set	1141
  1171                           	DABS	1,142,1	;_ULPWUE
  1172                           
  1173                           	global	_VR0
  1174  04C8                     _VR0	set	1224
  1175                           	DABS	1,153,1	;_VR0
  1176                           
  1177                           	global	_VR1
  1178  04C9                     _VR1	set	1225
  1179                           	DABS	1,153,1	;_VR1
  1180                           
  1181                           	global	_VR2
  1182  04CA                     _VR2	set	1226
  1183                           	DABS	1,153,1	;_VR2
  1184                           
  1185                           	global	_VR3
  1186  04CB                     _VR3	set	1227
  1187                           	DABS	1,153,1	;_VR3
  1188                           
  1189                           	global	_VREN
  1190  04CF                     _VREN	set	1231
  1191                           	DABS	1,153,1	;_VREN
  1192                           
  1193                           	global	_VRR
  1194  04CD                     _VRR	set	1229
  1195                           	DABS	1,153,1	;_VRR
  1196                           
  1197                           	global	_WPU0
  1198  04A8                     _WPU0	set	1192
  1199                           	DABS	1,149,1	;_WPU0
  1200                           
  1201                           	global	_WPU1
  1202  04A9                     _WPU1	set	1193
  1203                           	DABS	1,149,1	;_WPU1
  1204                           
  1205                           	global	_WPU2
  1206  04AA                     _WPU2	set	1194
  1207                           	DABS	1,149,1	;_WPU2
  1208                           
  1209                           	global	_WPU4
  1210  04AC                     _WPU4	set	1196
  1211                           	DABS	1,149,1	;_WPU4
  1212                           
  1213                           	global	_WPU5
  1214  04AD                     _WPU5	set	1197
  1215                           	DABS	1,149,1	;_WPU5
  1216                           
  1217                           	global	_WPUA0
  1218  04A8                     _WPUA0	set	1192
  1219                           	DABS	1,149,1	;_WPUA0
  1220                           
  1221                           	global	_WPUA1
  1222  04A9                     _WPUA1	set	1193
  1223                           	DABS	1,149,1	;_WPUA1
  1224                           
  1225                           	global	_WPUA2
  1226  04AA                     _WPUA2	set	1194
  1227                           	DABS	1,149,1	;_WPUA2
  1228                           
  1229                           	global	_WPUA4
  1230  04AC                     _WPUA4	set	1196
  1231                           	DABS	1,149,1	;_WPUA4
  1232                           
  1233                           	global	_WPUA5
  1234  04AD                     _WPUA5	set	1197
  1235                           	DABS	1,149,1	;_WPUA5
  1236                           
  1237                           	global	_WR
  1238  04E8                     _WR	set	1256
  1239                           	DABS	1,157,1	;_WR
  1240                           
  1241                           	global	_WREN
  1242  04E2                     _WREN	set	1250
  1243                           	DABS	1,156,1	;_WREN
  1244                           
  1245                           	global	_WREN1
  1246  04E2                     _WREN1	set	1250
  1247                           	DABS	1,156,1	;_WREN1
  1248                           
  1249                           	global	_WREN2
  1250  04E4                     _WREN2	set	1252
  1251                           	DABS	1,156,1	;_WREN2
  1252                           
  1253                           	global	_WREN3
  1254  04E5                     _WREN3	set	1253
  1255                           	DABS	1,156,1	;_WREN3
  1256                           
  1257                           	global	_WRERR
  1258  04E3                     _WRERR	set	1251
  1259                           	DABS	1,156,1	;_WRERR
  1260                           
  1261                           	global	_nBOD
  1262  0470                     _nBOD	set	1136
  1263                           	DABS	1,142,1	;_nBOD
  1264                           
  1265                           	global	_nBOR
  1266  0470                     _nBOR	set	1136
  1267                           	DABS	1,142,1	;_nBOR
  1268                           
  1269                           	global	_nPAPU
  1270  040F                     _nPAPU	set	1039
  1271                           	DABS	1,129,1	;_nPAPU
  1272                           
  1273                           	global	_nPOR
  1274  0471                     _nPOR	set	1137
  1275                           	DABS	1,142,1	;_nPOR
  1276                           
  1277                           	global	_nRAPU
  1278  040F                     _nRAPU	set	1039
  1279                           	DABS	1,129,1	;_nRAPU
  1280                           
  1281                           	global	_INTCON
  1282  000B                     _INTCON	set	11
  1283                           	DABS	1,11,1	;_INTCON
  1284                           
  1285                           	global	_PIR1
  1286  000C                     _PIR1	set	12
  1287                           	DABS	1,12,1	;_PIR1
  1288                           
  1289                           	global	_SFR0D
  1290  000D                     _SFR0D	set	13
  1291                           	DABS	1,13,1	;_SFR0D
  1292                           
  1293                           	global	_SFR0E
  1294  000E                     _SFR0E	set	14
  1295                           	DABS	1,14,1	;_SFR0E
  1296                           
  1297                           	global	_SFR0F
  1298  000F                     _SFR0F	set	15
  1299                           	DABS	1,15,1	;_SFR0F
  1300                           
  1301                           	global	_SFR10
  1302  0010                     _SFR10	set	16
  1303                           	DABS	1,16,1	;_SFR10
  1304                           
  1305                           	global	_TMR2
  1306  0011                     _TMR2	set	17
  1307                           	DABS	1,17,1	;_TMR2
  1308                           
  1309                           	global	_SFR13
  1310  0013                     _SFR13	set	19
  1311                           	DABS	1,19,1	;_SFR13
  1312                           
  1313                           	global	_SFR14
  1314  0014                     _SFR14	set	20
  1315                           	DABS	1,20,1	;_SFR14
  1316                           
  1317                           	global	_SFR15
  1318  0015                     _SFR15	set	21
  1319                           	DABS	1,21,1	;_SFR15
  1320                           
  1321                           	global	_SFR16
  1322  0016                     _SFR16	set	22
  1323                           	DABS	1,22,1	;_SFR16
  1324                           
  1325                           	global	_SFR17
  1326  0017                     _SFR17	set	23
  1327                           	DABS	1,23,1	;_SFR17
  1328                           
  1329                           	global	_T2CON
  1330  0012                     _T2CON	set	18
  1331                           	DABS	1,18,1	;_T2CON
  1332                           
  1333                           	global	_WDTCON
  1334  0018                     _WDTCON	set	24
  1335                           	DABS	1,24,1	;_WDTCON
  1336                           
  1337                           	global	_MSCKCON
  1338  001B                     _MSCKCON	set	27
  1339                           	DABS	1,27,1	;_MSCKCON
  1340                           
  1341                           	global	_SFR19
  1342  0019                     _SFR19	set	25
  1343                           	DABS	1,25,1	;_SFR19
  1344                           
  1345                           	global	_SFR1A
  1346  001A                     _SFR1A	set	26
  1347                           	DABS	1,26,1	;_SFR1A
  1348                           
  1349                           	global	_SFR1E
  1350  001E                     _SFR1E	set	30
  1351                           	DABS	1,30,1	;_SFR1E
  1352                           
  1353                           	global	_SFR1F
  1354  001F                     _SFR1F	set	31
  1355                           	DABS	1,31,1	;_SFR1F
  1356                           
  1357                           	global	_SOSCPRH
  1358  001D                     _SOSCPRH	set	29
  1359                           	DABS	1,29,1	;_SOSCPRH
  1360                           
  1361                           	global	_SOSCPRL
  1362  001C                     _SOSCPRL	set	28
  1363                           	DABS	1,28,1	;_SOSCPRL
  1364                           
  1365                           	global	_SFR82
  1366  0082                     _SFR82	set	130
  1367                           	DABS	1,130,1	;_SFR82
  1368                           
  1369                           	global	_SFR83
  1370  0083                     _SFR83	set	131
  1371                           	DABS	1,131,1	;_SFR83
  1372                           
  1373                           	global	_SFR84
  1374  0084                     _SFR84	set	132
  1375                           	DABS	1,132,1	;_SFR84
  1376                           
  1377                           	global	_TRISA
  1378  0085                     _TRISA	set	133
  1379                           	DABS	1,133,1	;_TRISA
  1380                           
  1381                           	global	_PIE1
  1382  008C                     _PIE1	set	140
  1383                           	DABS	1,140,1	;_PIE1
  1384                           
  1385                           	global	_SFR86
  1386  0086                     _SFR86	set	134
  1387                           	DABS	1,134,1	;_SFR86
  1388                           
  1389                           	global	_SFR87
  1390  0087                     _SFR87	set	135
  1391                           	DABS	1,135,1	;_SFR87
  1392                           
  1393                           	global	_SFR88
  1394  0088                     _SFR88	set	136
  1395                           	DABS	1,136,1	;_SFR88
  1396                           
  1397                           	global	_SFR89
  1398  0089                     _SFR89	set	137
  1399                           	DABS	1,137,1	;_SFR89
  1400                           
  1401                           	global	_SFR8A
  1402  008A                     _SFR8A	set	138
  1403                           	DABS	1,138,1	;_SFR8A
  1404                           
  1405                           	global	_SFR8B
  1406  008B                     _SFR8B	set	139
  1407                           	DABS	1,139,1	;_SFR8B
  1408                           
  1409                           	global	_PCON
  1410  008E                     _PCON	set	142
  1411                           	DABS	1,142,1	;_PCON
  1412                           
  1413                           	global	_SFR8D
  1414  008D                     _SFR8D	set	141
  1415                           	DABS	1,141,1	;_SFR8D
  1416                           
  1417                           	global	_OSCCON
  1418  008F                     _OSCCON	set	143
  1419                           	DABS	1,143,1	;_OSCCON
  1420                           
  1421                           	global	_PR2
  1422  0092                     _PR2	set	146
  1423                           	DABS	1,146,1	;_PR2
  1424                           
  1425                           	global	_SFR90
  1426  0090                     _SFR90	set	144
  1427                           	DABS	1,144,1	;_SFR90
  1428                           
  1429                           	global	_SFR91
  1430  0091                     _SFR91	set	145
  1431                           	DABS	1,145,1	;_SFR91
  1432                           
  1433                           	global	_SFR93
  1434  0093                     _SFR93	set	147
  1435                           	DABS	1,147,1	;_SFR93
  1436                           
  1437                           	global	_SFR94
  1438  0094                     _SFR94	set	148
  1439                           	DABS	1,148,1	;_SFR94
  1440                           
  1441                           	global	_WPUA
  1442  0095                     _WPUA	set	149
  1443                           	DABS	1,149,1	;_WPUA
  1444                           
  1445                           	global	_EEDAT
  1446  009A                     _EEDAT	set	154
  1447                           	DABS	1,154,1	;_EEDAT
  1448                           
  1449                           	global	_IOCA
  1450  0096                     _IOCA	set	150
  1451                           	DABS	1,150,1	;_IOCA
  1452                           
  1453                           	global	_SFR97
  1454  0097                     _SFR97	set	151
  1455                           	DABS	1,151,1	;_SFR97
  1456                           
  1457                           	global	_SFR98
  1458  0098                     _SFR98	set	152
  1459                           	DABS	1,152,1	;_SFR98
  1460                           
  1461                           	global	_SFR99
  1462  0099                     _SFR99	set	153
  1463                           	DABS	1,153,1	;_SFR99
  1464                           
  1465                           	global	_EEADR
  1466  009B                     _EEADR	set	155
  1467                           	DABS	1,155,1	;_EEADR
  1468                           
  1469                           	global	_EECON1
  1470  009C                     _EECON1	set	156
  1471                           	DABS	1,156,1	;_EECON1
  1472                           
  1473                           	global	_EECON2
  1474  009D                     _EECON2	set	157
  1475                           	DABS	1,157,1	;_EECON2
  1476                           
  1477                           	global	_SFR9E
  1478  009E                     _SFR9E	set	158
  1479                           	DABS	1,158,1	;_SFR9E
  1480                           
  1481                           	global	_SFR9F
  1482  009F                     _SFR9F	set	159
  1483                           	DABS	1,159,1	;_SFR9F
  1484                           
  1485                           	file	"mg117mcubeacon.as"
  1486                           	line	#
  1487                           psect cinit,class=CODE,delta=2
  1488                           global start_initialization
  1489  0098                     start_initialization:
  1490                           
  1491                           psect cinit,class=CODE,delta=2
  1492                           global end_of_initialization
  1493                           
  1494                           ;End of C runtime variable initialization code
  1495                           
  1496  0098                     end_of_initialization:
  1497  0098  0183               clrf status
  1498  0099  2856               ljmp _main	;jump to C main() function
  1499                           psect	cstackCOMMON,class=COMMON,space=1
  1500                           global __pcstackCOMMON
  1501  0040                     __pcstackCOMMON:
  1502                           	global	?_ISR
  1503  0040                     ?_ISR:	; 0 bytes @ 0x0
  1504                           	global	??_ISR
  1505  0040                     ??_ISR:	; 0 bytes @ 0x0
  1506                           	global	?_POWER_INITIAL
  1507  0040                     ?_POWER_INITIAL:	; 0 bytes @ 0x0
  1508                           	global	?_WDT_INITIAL
  1509  0040                     ?_WDT_INITIAL:	; 0 bytes @ 0x0
  1510                           	global	?_DelayUs
  1511  0040                     ?_DelayUs:	; 0 bytes @ 0x0
  1512                           	global	?_DelayMs
  1513  0040                     ?_DelayMs:	; 0 bytes @ 0x0
  1514                           	global	?_main
  1515  0040                     ?_main:	; 2 bytes @ 0x0
  1516  0040                     	ds	4
  1517                           	global	??_POWER_INITIAL
  1518  0044                     ??_POWER_INITIAL:	; 0 bytes @ 0x4
  1519                           	global	??_WDT_INITIAL
  1520  0044                     ??_WDT_INITIAL:	; 0 bytes @ 0x4
  1521                           	global	??_DelayUs
  1522  0044                     ??_DelayUs:	; 0 bytes @ 0x4
  1523  0044                     	ds	1
  1524                           	global	DelayUs@Time
  1525  0045                     DelayUs@Time:	; 1 bytes @ 0x5
  1526  0045                     	ds	1
  1527                           	global	DelayUs@a
  1528  0046                     DelayUs@a:	; 1 bytes @ 0x6
  1529  0046                     	ds	1
  1530                           	global	??_DelayMs
  1531  0047                     ??_DelayMs:	; 0 bytes @ 0x7
  1532  0047                     	ds	1
  1533                           	global	DelayMs@Time
  1534  0048                     DelayMs@Time:	; 1 bytes @ 0x8
  1535  0048                     	ds	1
  1536                           	global	DelayMs@a
  1537  0049                     DelayMs@a:	; 1 bytes @ 0x9
  1538  0049                     	ds	1
  1539                           	global	DelayMs@b
  1540  004A                     DelayMs@b:	; 1 bytes @ 0xA
  1541  004A                     	ds	1
  1542                           	global	??_main
  1543  004B                     ??_main:	; 0 bytes @ 0xB
  1544 ;;Data sizes: Strings 0, constant 0, data 0, bss 0, persistent 0 stack 0
  1545 ;;Auto spaces:   Size  Autos    Used
  1546 ;; COMMON          62     11      11
  1547                           
  1548 ;;
  1549 ;; Pointer list with targets:
  1550                           
  1551                           
  1552                           
  1553 ;;
  1554 ;; Critical Paths under _main in COMMON
  1555 ;;
  1556 ;;   _main->_DelayMs
  1557 ;;   _DelayMs->_DelayUs
  1558 ;;
  1559 ;; Critical Paths under _ISR in COMMON
  1560 ;;
  1561 ;;   None.
  1562                           
  1563 ;;
  1564 ;;Main: autosize = 0, tempsize = 0, incstack = 0, save=0
  1565 ;;
  1566                           
  1567 ;;
  1568 ;;Call Graph Tables:
  1569 ;;
  1570 ;; ---------------------------------------------------------------------------------
  1571 ;; (Depth) Function   	        Calls       Base Space   Used Autos Params    Refs
  1572 ;; ---------------------------------------------------------------------------------
  1573 ;; (0) _main                                                 0     0      0      90
  1574 ;;                      _POWER_INITIAL
  1575 ;;                        _WDT_INITIAL
  1576 ;;                            _DelayMs
  1577 ;; ---------------------------------------------------------------------------------
  1578 ;; (1) _DelayMs                                              4     4      0      90
  1579 ;;                                              7 COMMON     4     4      0
  1580 ;;                            _DelayUs
  1581 ;; ---------------------------------------------------------------------------------
  1582 ;; (2) _DelayUs                                              3     3      0      30
  1583 ;;                                              4 COMMON     3     3      0
  1584 ;; ---------------------------------------------------------------------------------
  1585 ;; (1) _WDT_INITIAL                                          1     1      0       0
  1586 ;;                                              4 COMMON     1     1      0
  1587 ;; ---------------------------------------------------------------------------------
  1588 ;; (1) _POWER_INITIAL                                        1     1      0       0
  1589 ;;                                              4 COMMON     1     1      0
  1590 ;; ---------------------------------------------------------------------------------
  1591 ;; Estimated maximum stack depth 2
  1592 ;; ---------------------------------------------------------------------------------
  1593 ;; (Depth) Function   	        Calls       Base Space   Used Autos Params    Refs
  1594 ;; ---------------------------------------------------------------------------------
  1595 ;; (3) _ISR                                                  4     4      0       0
  1596 ;;                                              0 COMMON     4     4      0
  1597 ;; ---------------------------------------------------------------------------------
  1598 ;; Estimated maximum stack depth 3
  1599 ;; ---------------------------------------------------------------------------------
  1600                           
  1601 ;; Call Graph Graphs:
  1602                           
  1603 ;; _main (ROOT)
  1604 ;;   _POWER_INITIAL
  1605 ;;   _WDT_INITIAL
  1606 ;;   _DelayMs
  1607 ;;     _DelayUs
  1608 ;;
  1609 ;; _ISR (ROOT)
  1610 ;;
  1611                           
  1612 ;; Address spaces:
  1613                           
  1614 ;;Name               Size   Autos  Total    Cost      Usage
  1615 ;;BITCOMMON           3E      0       0       0        0.0%
  1616 ;;EEDATA             100      0       0       0        0.0%
  1617 ;;NULL                 0      0       0       0        0.0%
  1618 ;;CODE                 0      0       0       0        0.0%
  1619 ;;COMMON              3E      B       B       1       17.7%
  1620 ;;BITSFR0              0      0       0       1        0.0%
  1621 ;;SFR0                 0      0       0       1        0.0%
  1622 ;;BITSFR1              0      0       0       2        0.0%
  1623 ;;SFR1                 0      0       0       2        0.0%
  1624 ;;STACK                0      0       2       2        0.0%
  1625 ;;ABS                  0      0       0       3        0.0%
  1626 ;;DATA                 0      0       0       4        0.0%
  1627                           
  1628                           	global	_main
  1629                           psect	maintext,global,class=CODE,delta=2
  1630                           global __pmaintext
  1631  0056                     __pmaintext:
  1632                           
  1633 ;; *************** function _main *****************
  1634 ;; Defined at:
  1635 ;;		line 122 in file "MG117McuBeacon.C"
  1636 ;; Parameters:    Size  Location     Type
  1637 ;;		None
  1638 ;; Auto vars:     Size  Location     Type
  1639 ;;		None
  1640 ;; Return value:  Size  Location     Type
  1641 ;;                  2  463[COMMON] int 
  1642 ;; Registers used:
  1643 ;;		wreg, status,2, status,0, pclath, cstack
  1644 ;; Tracked objects:
  1645 ;;		On entry : 17F/0
  1646 ;;		On exit  : 0/0
  1647 ;;		Unchanged: 0/0
  1648 ;; Data sizes:     COMMON
  1649 ;;      Params:         0
  1650 ;;      Locals:         0
  1651 ;;      Temps:          0
  1652 ;;      Totals:         0
  1653 ;;Total ram usage:        0 bytes
  1654 ;; Hardware stack levels required when called:    3
  1655 ;; This function calls:
  1656 ;;		_POWER_INITIAL
  1657 ;;		_WDT_INITIAL
  1658 ;;		_DelayMs
  1659 ;; This function is called by:
  1660 ;;		Startup code after reset
  1661 ;; This function uses a non-reentrant model
  1662 ;;
  1663                           psect	maintext
  1664                           	file	"MG117McuBeacon.C"
  1665                           	line	122
  1666                           	global	__size_of_main
  1667  001C                     	__size_of_main	equ	__end_of_main-_main
  1668                           	
  1669  0056                     _main:	
  1670                           	opt	stack 5
  1671                           ; Regs used in _main: [wreg+status,2+status,0+pclath+cstack]
  1672                           	line	123
  1673                           	
  1674  0056                     l2322:	
  1675                           ;MG117McuBeacon.C: 123: POWER_INITIAL();
  1676  0056  2036               	fcall	_POWER_INITIAL
  1677                           	line	124
  1678                           ;MG117McuBeacon.C: 124: WDT_INITIAL();
  1679  0057  208E               	fcall	_WDT_INITIAL
  1680                           	line	127
  1681                           	
  1682  0058                     l2324:	
  1683                           ;MG117McuBeacon.C: 127: RA2 = 0;
  1684  0058  1283               	bcf	status, 5	;RP0=0, select bank0
  1685  0059  1105               	bcf	(42/8),(42)&7
  1686                           	line	128
  1687                           ;MG117McuBeacon.C: 128: DelayMs(100);
  1688  005A  3064               	movlw	(064h)
  1689  005B  2010               	fcall	_DelayMs
  1690                           	line	129
  1691                           	
  1692  005C                     l2326:	
  1693                           ;MG117McuBeacon.C: 129: RA2 = 1;
  1694  005C  1283               	bcf	status, 5	;RP0=0, select bank0
  1695  005D  1505               	bsf	(42/8),(42)&7
  1696                           	line	132
  1697                           	
  1698  005E                     l2328:	
  1699                           ;MG117McuBeacon.C: 132: RA5 = 0;
  1700  005E  1285               	bcf	(45/8),(45)&7
  1701                           	line	133
  1702                           ;MG117McuBeacon.C: 133: DelayMs(1500 - 100);
  1703  005F  3078               	movlw	(078h)
  1704  0060  2010               	fcall	_DelayMs
  1705                           	line	134
  1706                           	
  1707  0061                     l2330:	
  1708                           ;MG117McuBeacon.C: 134: RA5 = 1;
  1709  0061  1283               	bcf	status, 5	;RP0=0, select bank0
  1710  0062  1685               	bsf	(45/8),(45)&7
  1711  0063  2864               	goto	l2332
  1712                           	line	137
  1713                           ;MG117McuBeacon.C: 137: while (1)
  1714                           	
  1715  0064                     l464:	
  1716                           	line	139
  1717                           	
  1718  0064                     l2332:	
  1719                           # 139 "MG117McuBeacon.C"
  1720  0064  0064               clrwdt ;#
  1721                           psect	maintext
  1722                           	line	140
  1723                           	
  1724  0065                     l2334:	
  1725                           ;MG117McuBeacon.C: 140: SWDTEN = 1;
  1726  0065  1283               	bcf	status, 5	;RP0=0, select bank0
  1727  0066  1418               	bsf	(192/8),(192)&7
  1728                           	line	142
  1729                           	
  1730  0067                     l2336:	
  1731                           ;MG117McuBeacon.C: 142: RA4 = 0;
  1732  0067  1205               	bcf	(44/8),(44)&7
  1733                           	line	143
  1734                           ;MG117McuBeacon.C: 143: DelayMs(1050);
  1735  0068  301A               	movlw	(01Ah)
  1736  0069  2010               	fcall	_DelayMs
  1737                           	line	144
  1738                           	
  1739  006A                     l2338:	
  1740                           ;MG117McuBeacon.C: 144: RA4 = 1;
  1741  006A  1283               	bcf	status, 5	;RP0=0, select bank0
  1742  006B  1605               	bsf	(44/8),(44)&7
  1743                           	line	145
  1744                           ;MG117McuBeacon.C: 145: DelayMs((1000 - 1050));
  1745  006C  30CE               	movlw	(0CEh)
  1746  006D  2010               	fcall	_DelayMs
  1747                           	line	147
  1748                           	
  1749  006E                     l2340:	
  1750                           # 147 "MG117McuBeacon.C"
  1751  006E  0063               sleep ;#
  1752                           psect	maintext
  1753  006F  2864               	goto	l2332
  1754                           	line	148
  1755                           	
  1756  0070                     l465:	
  1757                           	line	137
  1758  0070  2864               	goto	l2332
  1759                           	
  1760  0071                     l466:	
  1761                           	line	149
  1762                           	
  1763  0071                     l467:	
  1764                           	global	start
  1765  0071  280F               	ljmp	start
  1766                           	opt stack 0
  1767                           GLOBAL	__end_of_main
  1768  0072                     	__end_of_main:
  1769 ;; =============== function _main ends ============
  1770                           
  1771                           	signat	_main,90
  1772                           	global	_DelayMs
  1773                           psect	text108,local,class=CODE,delta=2
  1774                           global __ptext108
  1775  0010                     __ptext108:
  1776                           
  1777 ;; *************** function _DelayMs *****************
  1778 ;; Defined at:
  1779 ;;		line 94 in file "MG117McuBeacon.C"
  1780 ;; Parameters:    Size  Location     Type
  1781 ;;  Time            1    wreg     unsigned char 
  1782 ;; Auto vars:     Size  Location     Type
  1783 ;;  Time            1    8[COMMON] unsigned char 
  1784 ;;  b               1   10[COMMON] unsigned char 
  1785 ;;  a               1    9[COMMON] unsigned char 
  1786 ;; Return value:  Size  Location     Type
  1787 ;;		None               void
  1788 ;; Registers used:
  1789 ;;		wreg, status,2, status,0, pclath, cstack
  1790 ;; Tracked objects:
  1791 ;;		On entry : 0/0
  1792 ;;		On exit  : 0/0
  1793 ;;		Unchanged: 0/0
  1794 ;; Data sizes:     COMMON
  1795 ;;      Params:         0
  1796 ;;      Locals:         3
  1797 ;;      Temps:          1
  1798 ;;      Totals:         4
  1799 ;;Total ram usage:        4 bytes
  1800 ;; Hardware stack levels used:    1
  1801 ;; Hardware stack levels required when called:    2
  1802 ;; This function calls:
  1803 ;;		_DelayUs
  1804 ;; This function is called by:
  1805 ;;		_main
  1806 ;;		_DelayS
  1807 ;; This function uses a non-reentrant model
  1808 ;;
  1809                           psect	text108
  1810                           	file	"MG117McuBeacon.C"
  1811                           	line	94
  1812                           	global	__size_of_DelayMs
  1813  0026                     	__size_of_DelayMs	equ	__end_of_DelayMs-_DelayMs
  1814                           	
  1815  0010                     _DelayMs:	
  1816                           	opt	stack 5
  1817                           ; Regs used in _DelayMs: [wreg+status,2+status,0+pclath+cstack]
  1818                           ;DelayMs@Time stored from wreg
  1819                           	line	96
  1820  0010  00C8               	movwf	(DelayMs@Time)
  1821                           	
  1822  0011                     l2306:	
  1823                           ;MG117McuBeacon.C: 95: unsigned char a, b;
  1824                           ;MG117McuBeacon.C: 96: for (a = 0; a < Time; a++)
  1825  0011  01C9               	clrf	(DelayMs@a)
  1826  0012  282E               	goto	l2320
  1827                           	line	97
  1828                           	
  1829  0013                     l449:	
  1830                           	line	98
  1831                           ;MG117McuBeacon.C: 97: {
  1832                           ;MG117McuBeacon.C: 98: for (b = 0; b < 5; b++)
  1833  0013  01CA               	clrf	(DelayMs@b)
  1834                           	
  1835  0014                     l2308:	
  1836  0014  3005               	movlw	(05h)
  1837  0015  024A               	subwf	(DelayMs@b),w
  1838  0016  1C03               	skipc
  1839  0017  2819               	goto	u2261
  1840  0018  281A               	goto	u2260
  1841  0019                     u2261:
  1842  0019  281C               	goto	l2312
  1843  001A                     u2260:
  1844  001A  2829               	goto	l2318
  1845                           	
  1846  001B                     l2310:	
  1847  001B  2829               	goto	l2318
  1848                           	line	99
  1849                           	
  1850  001C                     l450:	
  1851                           	line	100
  1852                           	
  1853  001C                     l2312:	
  1854                           ;MG117McuBeacon.C: 99: {
  1855                           ;MG117McuBeacon.C: 100: DelayUs(98);
  1856  001C  3062               	movlw	(062h)
  1857  001D  2072               	fcall	_DelayUs
  1858                           	line	98
  1859                           	
  1860  001E                     l2314:	
  1861  001E  3001               	movlw	(01h)
  1862  001F  00C7               	movwf	(??_DelayMs+0)+0
  1863  0020  0847               	movf	(??_DelayMs+0)+0,w
  1864  0021  07CA               	addwf	(DelayMs@b),f
  1865                           	
  1866  0022                     l2316:	
  1867  0022  3005               	movlw	(05h)
  1868  0023  024A               	subwf	(DelayMs@b),w
  1869  0024  1C03               	skipc
  1870  0025  2827               	goto	u2271
  1871  0026  2828               	goto	u2270
  1872  0027                     u2271:
  1873  0027  281C               	goto	l2312
  1874  0028                     u2270:
  1875  0028  2829               	goto	l2318
  1876                           	
  1877  0029                     l451:	
  1878                           	line	96
  1879                           	
  1880  0029                     l2318:	
  1881  0029  3001               	movlw	(01h)
  1882  002A  00C7               	movwf	(??_DelayMs+0)+0
  1883  002B  0847               	movf	(??_DelayMs+0)+0,w
  1884  002C  07C9               	addwf	(DelayMs@a),f
  1885  002D  282E               	goto	l2320
  1886                           	
  1887  002E                     l448:	
  1888                           	
  1889  002E                     l2320:	
  1890  002E  0848               	movf	(DelayMs@Time),w
  1891  002F  0249               	subwf	(DelayMs@a),w
  1892  0030  1C03               	skipc
  1893  0031  2833               	goto	u2281
  1894  0032  2834               	goto	u2280
  1895  0033                     u2281:
  1896  0033  2813               	goto	l449
  1897  0034                     u2280:
  1898  0034  2835               	goto	l453
  1899                           	
  1900  0035                     l452:	
  1901                           	line	103
  1902                           	
  1903  0035                     l453:	
  1904  0035  0008               	return
  1905                           	opt stack 0
  1906                           GLOBAL	__end_of_DelayMs
  1907  0036                     	__end_of_DelayMs:
  1908 ;; =============== function _DelayMs ends ============
  1909                           
  1910                           	signat	_DelayMs,4216
  1911                           	global	_DelayUs
  1912                           psect	text109,local,class=CODE,delta=2
  1913                           global __ptext109
  1914  0072                     __ptext109:
  1915                           
  1916 ;; *************** function _DelayUs *****************
  1917 ;; Defined at:
  1918 ;;		line 86 in file "MG117McuBeacon.C"
  1919 ;; Parameters:    Size  Location     Type
  1920 ;;  Time            1    wreg     unsigned char 
  1921 ;; Auto vars:     Size  Location     Type
  1922 ;;  Time            1    5[COMMON] unsigned char 
  1923 ;;  a               1    6[COMMON] unsigned char 
  1924 ;; Return value:  Size  Location     Type
  1925 ;;		None               void
  1926 ;; Registers used:
  1927 ;;		wreg, status,2, status,0
  1928 ;; Tracked objects:
  1929 ;;		On entry : 0/0
  1930 ;;		On exit  : 0/0
  1931 ;;		Unchanged: 0/0
  1932 ;; Data sizes:     COMMON
  1933 ;;      Params:         0
  1934 ;;      Locals:         2
  1935 ;;      Temps:          1
  1936 ;;      Totals:         3
  1937 ;;Total ram usage:        3 bytes
  1938 ;; Hardware stack levels used:    1
  1939 ;; Hardware stack levels required when called:    1
  1940 ;; This function calls:
  1941 ;;		Nothing
  1942 ;; This function is called by:
  1943 ;;		_DelayMs
  1944 ;; This function uses a non-reentrant model
  1945 ;;
  1946                           psect	text109
  1947                           	file	"MG117McuBeacon.C"
  1948                           	line	86
  1949                           	global	__size_of_DelayUs
  1950  0011                     	__size_of_DelayUs	equ	__end_of_DelayUs-_DelayUs
  1951                           	
  1952  0072                     _DelayUs:	
  1953                           	opt	stack 5
  1954                           ; Regs used in _DelayUs: [wreg+status,2+status,0]
  1955                           ;DelayUs@Time stored from wreg
  1956                           	line	88
  1957  0072  00C5               	movwf	(DelayUs@Time)
  1958                           	
  1959  0073                     l2300:	
  1960                           ;MG117McuBeacon.C: 87: unsigned char a;
  1961                           ;MG117McuBeacon.C: 88: for (a = 0; a < Time; a++)
  1962  0073  01C6               	clrf	(DelayUs@a)
  1963  0074  287B               	goto	l2304
  1964                           	line	89
  1965                           	
  1966  0075                     l443:	
  1967                           	line	90
  1968                           ;MG117McuBeacon.C: 89: {
  1969                           ;MG117McuBeacon.C: 90: _nop();
  1970  0075  0000               	nop
  1971                           	line	88
  1972                           	
  1973  0076                     l2302:	
  1974  0076  3001               	movlw	(01h)
  1975  0077  00C4               	movwf	(??_DelayUs+0)+0
  1976  0078  0844               	movf	(??_DelayUs+0)+0,w
  1977  0079  07C6               	addwf	(DelayUs@a),f
  1978  007A  287B               	goto	l2304
  1979                           	
  1980  007B                     l442:	
  1981                           	
  1982  007B                     l2304:	
  1983  007B  0845               	movf	(DelayUs@Time),w
  1984  007C  0246               	subwf	(DelayUs@a),w
  1985  007D  1C03               	skipc
  1986  007E  2880               	goto	u2251
  1987  007F  2881               	goto	u2250
  1988  0080                     u2251:
  1989  0080  2875               	goto	l443
  1990  0081                     u2250:
  1991  0081  2882               	goto	l445
  1992                           	
  1993  0082                     l444:	
  1994                           	line	92
  1995                           	
  1996  0082                     l445:	
  1997  0082  0008               	return
  1998                           	opt stack 0
  1999                           GLOBAL	__end_of_DelayUs
  2000  0083                     	__end_of_DelayUs:
  2001 ;; =============== function _DelayUs ends ============
  2002                           
  2003                           	signat	_DelayUs,4216
  2004                           	global	_WDT_INITIAL
  2005                           psect	text110,local,class=CODE,delta=2
  2006                           global __ptext110
  2007  008E                     __ptext110:
  2008                           
  2009 ;; *************** function _WDT_INITIAL *****************
  2010 ;; Defined at:
  2011 ;;		line 78 in file "MG117McuBeacon.C"
  2012 ;; Parameters:    Size  Location     Type
  2013 ;;		None
  2014 ;; Auto vars:     Size  Location     Type
  2015 ;;		None
  2016 ;; Return value:  Size  Location     Type
  2017 ;;		None               void
  2018 ;; Registers used:
  2019 ;;		wreg
  2020 ;; Tracked objects:
  2021 ;;		On entry : 0/0
  2022 ;;		On exit  : 0/0
  2023 ;;		Unchanged: 0/0
  2024 ;; Data sizes:     COMMON
  2025 ;;      Params:         0
  2026 ;;      Locals:         0
  2027 ;;      Temps:          1
  2028 ;;      Totals:         1
  2029 ;;Total ram usage:        1 bytes
  2030 ;; Hardware stack levels used:    1
  2031 ;; Hardware stack levels required when called:    1
  2032 ;; This function calls:
  2033 ;;		Nothing
  2034 ;; This function is called by:
  2035 ;;		_main
  2036 ;; This function uses a non-reentrant model
  2037 ;;
  2038                           psect	text110
  2039                           	file	"MG117McuBeacon.C"
  2040                           	line	78
  2041                           	global	__size_of_WDT_INITIAL
  2042  000A                     	__size_of_WDT_INITIAL	equ	__end_of_WDT_INITIAL-_WDT_INITIAL
  2043                           	
  2044  008E                     _WDT_INITIAL:	
  2045                           	opt	stack 6
  2046                           ; Regs used in _WDT_INITIAL: [wreg]
  2047                           	line	79
  2048                           	
  2049  008E                     l1420:	
  2050                           # 79 "MG117McuBeacon.C"
  2051  008E  0064               clrwdt ;#
  2052                           psect	text110
  2053                           	line	80
  2054                           ;MG117McuBeacon.C: 80: PSA = 1;
  2055  008F  1683               	bsf	status, 5	;RP0=1, select bank1
  2056  0090  1581               	bsf	(1035/8)^080h,(1035)&7
  2057                           	line	81
  2058                           	
  2059  0091                     l1422:	
  2060                           ;MG117McuBeacon.C: 81: WDTCON = 0B00010100;
  2061  0091  3014               	movlw	(014h)
  2062  0092  00C4               	movwf	(??_WDT_INITIAL+0)+0
  2063  0093  0844               	movf	(??_WDT_INITIAL+0)+0,w
  2064  0094  1283               	bcf	status, 5	;RP0=0, select bank0
  2065  0095  0098               	movwf	(24)	;volatile
  2066                           	line	82
  2067                           	
  2068  0096                     l1424:	
  2069                           ;MG117McuBeacon.C: 82: SWDTEN = 0;
  2070  0096  1018               	bcf	(192/8),(192)&7
  2071                           	line	83
  2072                           	
  2073  0097                     l439:	
  2074  0097  0008               	return
  2075                           	opt stack 0
  2076                           GLOBAL	__end_of_WDT_INITIAL
  2077  0098                     	__end_of_WDT_INITIAL:
  2078 ;; =============== function _WDT_INITIAL ends ============
  2079                           
  2080                           	signat	_WDT_INITIAL,88
  2081                           	global	_POWER_INITIAL
  2082                           psect	text111,local,class=CODE,delta=2
  2083                           global __ptext111
  2084  0036                     __ptext111:
  2085                           
  2086 ;; *************** function _POWER_INITIAL *****************
  2087 ;; Defined at:
  2088 ;;		line 47 in file "MG117McuBeacon.C"
  2089 ;; Parameters:    Size  Location     Type
  2090 ;;		None
  2091 ;; Auto vars:     Size  Location     Type
  2092 ;;		None
  2093 ;; Return value:  Size  Location     Type
  2094 ;;		None               void
  2095 ;; Registers used:
  2096 ;;		wreg
  2097 ;; Tracked objects:
  2098 ;;		On entry : 0/0
  2099 ;;		On exit  : 0/0
  2100 ;;		Unchanged: 0/0
  2101 ;; Data sizes:     COMMON
  2102 ;;      Params:         0
  2103 ;;      Locals:         0
  2104 ;;      Temps:          1
  2105 ;;      Totals:         1
  2106 ;;Total ram usage:        1 bytes
  2107 ;; Hardware stack levels used:    1
  2108 ;; Hardware stack levels required when called:    1
  2109 ;; This function calls:
  2110 ;;		Nothing
  2111 ;; This function is called by:
  2112 ;;		_main
  2113 ;; This function uses a non-reentrant model
  2114 ;;
  2115                           psect	text111
  2116                           	file	"MG117McuBeacon.C"
  2117                           	line	47
  2118                           	global	__size_of_POWER_INITIAL
  2119  0020                     	__size_of_POWER_INITIAL	equ	__end_of_POWER_INITIAL-_POWER_INITIAL
  2120                           	
  2121  0036                     _POWER_INITIAL:	
  2122                           	opt	stack 6
  2123                           ; Regs used in _POWER_INITIAL: [wreg]
  2124                           	line	48
  2125                           	
  2126  0036                     l1392:	
  2127                           ;MG117McuBeacon.C: 48: OSCCON = 0B01110001;
  2128  0036  3071               	movlw	(071h)
  2129  0037  00C4               	movwf	(??_POWER_INITIAL+0)+0
  2130  0038  0844               	movf	(??_POWER_INITIAL+0)+0,w
  2131  0039  1683               	bsf	status, 5	;RP0=1, select bank1
  2132  003A  008F               	movwf	(143)^080h	;volatile
  2133                           	line	52
  2134                           	
  2135  003B                     l1394:	
  2136                           ;MG117McuBeacon.C: 52: INTCON = 0;
  2137  003B  018B               	clrf	(11)	;volatile
  2138                           	line	53
  2139                           	
  2140  003C                     l1396:	
  2141                           ;MG117McuBeacon.C: 53: PORTA = 0B00000000;
  2142  003C  1283               	bcf	status, 5	;RP0=0, select bank0
  2143  003D  0185               	clrf	(5)	;volatile
  2144                           	line	54
  2145                           	
  2146  003E                     l1398:	
  2147                           ;MG117McuBeacon.C: 54: RA2 = 1;
  2148  003E  1505               	bsf	(42/8),(42)&7
  2149                           	line	55
  2150                           	
  2151  003F                     l1400:	
  2152                           ;MG117McuBeacon.C: 55: RA4 = 1;
  2153  003F  1605               	bsf	(44/8),(44)&7
  2154                           	line	56
  2155                           	
  2156  0040                     l1402:	
  2157                           ;MG117McuBeacon.C: 56: RA5 = 1;
  2158  0040  1685               	bsf	(45/8),(45)&7
  2159                           	line	58
  2160                           ;MG117McuBeacon.C: 58: TRISA = 0B11111111;
  2161  0041  30FF               	movlw	(0FFh)
  2162  0042  00C4               	movwf	(??_POWER_INITIAL+0)+0
  2163  0043  0844               	movf	(??_POWER_INITIAL+0)+0,w
  2164  0044  1683               	bsf	status, 5	;RP0=1, select bank1
  2165  0045  0085               	movwf	(133)^080h	;volatile
  2166                           	line	60
  2167                           	
  2168  0046                     l1404:	
  2169                           ;MG117McuBeacon.C: 60: TRISA2 = 0;
  2170  0046  1105               	bcf	(1066/8)^080h,(1066)&7
  2171                           	line	61
  2172                           	
  2173  0047                     l1406:	
  2174                           ;MG117McuBeacon.C: 61: TRISA4 = 0;
  2175  0047  1205               	bcf	(1068/8)^080h,(1068)&7
  2176                           	line	62
  2177                           	
  2178  0048                     l1408:	
  2179                           ;MG117McuBeacon.C: 62: TRISA5 = 0;
  2180  0048  1285               	bcf	(1069/8)^080h,(1069)&7
  2181                           	line	64
  2182                           	
  2183  0049                     l1410:	
  2184                           ;MG117McuBeacon.C: 64: RA2 = 1;
  2185  0049  1283               	bcf	status, 5	;RP0=0, select bank0
  2186  004A  1505               	bsf	(42/8),(42)&7
  2187                           	line	65
  2188                           	
  2189  004B                     l1412:	
  2190                           ;MG117McuBeacon.C: 65: RA4 = 1;
  2191  004B  1605               	bsf	(44/8),(44)&7
  2192                           	line	66
  2193                           	
  2194  004C                     l1414:	
  2195                           ;MG117McuBeacon.C: 66: RA5 = 1;
  2196  004C  1685               	bsf	(45/8),(45)&7
  2197                           	line	68
  2198                           	
  2199  004D                     l1416:	
  2200                           ;MG117McuBeacon.C: 68: WPUA = 0B00000000;
  2201  004D  1683               	bsf	status, 5	;RP0=1, select bank1
  2202  004E  0195               	clrf	(149)^080h	;volatile
  2203                           	line	69
  2204                           ;MG117McuBeacon.C: 69: OPTION = 0B00001000;
  2205  004F  3008               	movlw	(08h)
  2206  0050  00C4               	movwf	(??_POWER_INITIAL+0)+0
  2207  0051  0844               	movf	(??_POWER_INITIAL+0)+0,w
  2208  0052  0081               	movwf	(129)^080h	;volatile
  2209                           	line	70
  2210                           	
  2211  0053                     l1418:	
  2212                           ;MG117McuBeacon.C: 70: MSCKCON = 0B00000000;
  2213  0053  1283               	bcf	status, 5	;RP0=0, select bank0
  2214  0054  019B               	clrf	(27)	;volatile
  2215                           	line	75
  2216                           	
  2217  0055                     l436:	
  2218  0055  0008               	return
  2219                           	opt stack 0
  2220                           GLOBAL	__end_of_POWER_INITIAL
  2221  0056                     	__end_of_POWER_INITIAL:
  2222 ;; =============== function _POWER_INITIAL ends ============
  2223                           
  2224                           	signat	_POWER_INITIAL,88
  2225                           	global	_ISR
  2226                           psect	text112,local,class=CODE,delta=2
  2227                           global __ptext112
  2228  0083                     __ptext112:
  2229                           
  2230 ;; *************** function _ISR *****************
  2231 ;; Defined at:
  2232 ;;		line 42 in file "MG117McuBeacon.C"
  2233 ;; Parameters:    Size  Location     Type
  2234 ;;		None
  2235 ;; Auto vars:     Size  Location     Type
  2236 ;;		None
  2237 ;; Return value:  Size  Location     Type
  2238 ;;		None               void
  2239 ;; Registers used:
  2240 ;;		None
  2241 ;; Tracked objects:
  2242 ;;		On entry : 0/0
  2243 ;;		On exit  : 0/0
  2244 ;;		Unchanged: 0/0
  2245 ;; Data sizes:     COMMON
  2246 ;;      Params:         0
  2247 ;;      Locals:         0
  2248 ;;      Temps:          4
  2249 ;;      Totals:         4
  2250 ;;Total ram usage:        4 bytes
  2251 ;; Hardware stack levels used:    1
  2252 ;; This function calls:
  2253 ;;		Nothing
  2254 ;; This function is called by:
  2255 ;;		Interrupt level 1
  2256 ;; This function uses a non-reentrant model
  2257 ;;
  2258                           psect	text112
  2259                           	file	"MG117McuBeacon.C"
  2260                           	line	42
  2261                           	global	__size_of_ISR
  2262  000B                     	__size_of_ISR	equ	__end_of_ISR-_ISR
  2263                           	
  2264  0083                     _ISR:	
  2265                           	opt	stack 5
  2266                           ; Regs used in _ISR: []
  2267                           psect	intentry,class=CODE,delta=2
  2268                           global __pintentry
  2269  0004                     __pintentry:
  2270                           global interrupt_function
  2271  0004                     interrupt_function:
  2272                           	global saved_w
  2273  007E                     	saved_w	set	btemp+0
  2274  0004  00FE               	movwf	saved_w
  2275  0005  0E03               	swapf	status,w
  2276  0006  00C0               	movwf	(??_ISR+0)
  2277  0007  0804               	movf	fsr0,w
  2278  0008  00C1               	movwf	(??_ISR+1)
  2279  0009  080A               	movf	pclath,w
  2280  000A  00C2               	movwf	(??_ISR+2)
  2281  000B  1283               	bcf	status, 5	;RP0=0, select bank0
  2282  000C  087F               	movf	btemp+1,w
  2283  000D  00C3               	movwf	(??_ISR+3)
  2284  000E  2883               	ljmp	_ISR
  2285                           psect	text112
  2286                           	line	43
  2287                           	
  2288  0083                     i1l433:	
  2289  0083  0843               	movf	(??_ISR+3),w
  2290  0084  00FF               	movwf	btemp+1
  2291  0085  0842               	movf	(??_ISR+2),w
  2292  0086  008A               	movwf	pclath
  2293  0087  0841               	movf	(??_ISR+1),w
  2294  0088  0084               	movwf	fsr0
  2295  0089  0E40               	swapf	(??_ISR+0)^0FFFFFF80h,w
  2296  008A  0083               	movwf	status
  2297  008B  0EFE               	swapf	saved_w,f
  2298  008C  0E7E               	swapf	saved_w,w
  2299  008D  0009               	retfie
  2300                           	opt stack 0
  2301                           GLOBAL	__end_of_ISR
  2302  008E                     	__end_of_ISR:
  2303 ;; =============== function _ISR ends ============
  2304                           
  2305                           	signat	_ISR,88
  2306                           psect	text113,local,class=CODE,delta=2
  2307                           global __ptext113
  2308  0000                     __ptext113:
  2309                           	global	btemp
  2310  007E                     	btemp set 07Eh
  2311                           
  2312                           	DABS	1,126,2	;btemp
  2313                           	global	wtemp0
  2314  007E                     	wtemp0 set btemp


HI-TECH Software PICC Macro Assembler V9.83 build 10920 
Symbol Table                                                                                   Tue Jan 22 10:39:11 2019

                     _C 0018                       _Z 001A                      _DC 0019                      _HC 0019  
                    _GO 00F9                      _RD 04E0                      _RP 001D                      _WR 04E8  
                   l442 007B                     l450 001C                     l443 0075                     l451 0029  
                   l436 0055                     l444 0082                     l452 0035                     l445 0082  
                   l453 0035                     _CM0 00C8                     l439 0097                     _CM1 00C9  
                   l448 002E                     l464 0064                     _CM2 00CA                     l449 0013  
                   l465 0070                     l466 0071                     l467 0071                     _CIS 00CB  
                   _PA0 0028                     _PA1 0029                     _GIE 005F                     _PA2 002A  
                   _PA3 002B                     _PA4 002C                     _PA5 002D                     _RA0 0028  
                   _RA1 0029                     _RA2 002A                     _RA3 002B                     _RC0 0038  
                   _RA4 002C                     _RC1 0039                     _RA5 002D                     _RC2 003A  
                   _RC3 003B                     _RC4 003C                     _RC5 003D                     _IOC 0096  
                   _FSR 0004                     _PCL 0002                     _PR2 0092                     _PS0 0408  
                   _PS1 0409                     _PS2 040A                     _RP0 001D                     _IRP 001F  
                   _RP1 001E                     _HTS 047A                     _ISR 0083                     _SCS 0478  
                   _PSA 040B                     _LTS 0479                     _VR0 04C8                     _VR1 04C9  
                   _VR2 04CA                     _VR3 04CB                     _VRR 04CD                     _WPU 0095  
                   _nPD 001B                     _nPF 001B                     _nTF 001C                     _nTO 001C  
                   fsr0 0004                    ?_ISR 0040                    _C1IE 0463                    _C1IF 0063  
                  _C2IE 0464                    l1400 003F                    _C2IF 0064                    l1410 0049  
                  l1402 0040                    l1412 004B                    l1404 0046                    l1420 008E  
                  l2300 0073                    l1414 004C                    l1406 0047                    l1422 0091  
                  l2302 0076                    l2310 001B                    l1416 004D                    l1408 0048  
                  l1424 0096                    l2304 007B                    l2312 001C                    l2320 002E  
                  l1418 0053                    l2314 001E                    l2306 0011                    l2330 0061  
                  l2322 0056                    l2316 0022                    l2308 0014                    l2340 006E  
                  l2332 0064                    l2324 0058                    l2318 0029                    l2334 0065  
                  l2326 005C                    l1392 0036                    l2336 0067                    l2328 005E  
                  l1394 003B                    l2338 006A                    l1396 003C                    l1398 003E  
                  _ADIE 0466                    _ADIF 0066                    _ADFM 00FF                    _ADON 00F8  
                  _P1M0 00AE                    _CHS0 00FA                    _P1M1 00AF                    _CHS1 00FB  
                  _CHS2 00FC                    _EEIE 0467                    _EEIF 0067                    _ANS0 0488  
                  _ANS1 0489                    _ANS2 048A                    _ANS3 048B                    _ANS4 048C  
                  _ANS5 048D                    _ANS6 048E                    _ANS7 048F                    _T0IE 005D  
                  _T0IF 005A                    _T0CS 040D                    _IOC0 04B0                    _T1IE 0460  
                  _IOC1 04B1                    _IOC2 04B2                    _T1IF 0060                    _IOC3 04B3  
                  _IOC4 04B4                    _T2IE 0461                    _IOC5 04B5                    _T2IF 0061  
                  _PDC0 00B0                    _PDC1 00B1                    _PDC2 00B2                    _PDC3 00B3  
                  _PDC4 00B4                    _IOCA 0096                    _T0SE 040C                    _PDC5 00B5  
                  _PDC6 00B6                    _INDF 0000                    u2250 0081                    u2251 0080  
                  u2260 001A                    u2261 0019                    u2270 0028                    u2271 0027  
                  _PAGE 001D                    u2280 0034                    u2281 0033                    _PAIE 005B  
                  _PAIF 0058                    _PIE1 008C                    _RAIE 005B                    _PEIE 005E  
                  _RAIF 0058                    _INTE 005C                    _INTF 0059                    _PCON 008E  
                  _PIR1 000C                    _VCFG 00FE                    _TMR0 0001                    _TMR1 000E  
                  _TMR2 0011                    _OSTS 047B                    _TUN0 0480                    _TUN1 0481  
                  _TUN2 0482                    _TUN3 0483                    _TUN4 0484                    _VREN 04CF  
                  _WPU0 04A8                    _WPU1 04A9                    _WPU2 04AA                    _WPU4 04AC  
                  _WPU5 04AD                    _ZERO 001A                    _WREN 04E2                    _WPUA 0095  
                  _nBOD 0470                    _nBOR 0470                    _nPOR 0471                    _main 0056  
                  btemp 007E                    start 000F         __end_of_DelayMs 0036         __end_of_DelayUs 0083  
                 ??_ISR 0040                   _C1INV 00CC                   _DC1B0 00AC                   _DC1B1 00AD  
                 _C2INV 00CD                   _C1OUT 00CE                   _C2OUT 00CF                   _ADCS0 04FC  
                 _ADCS1 04FD                   _ADCS2 04FE                   ?_main 0040                   _EEADR 009B  
                 _CCPR1 0013                   _EEDAT 009A                   _CARRY 0018                   _ANSEL 0091  
                 _T1CON 0010                   _IOCA0 04B0                   _IOCA1 04B1                   _T2CON 0012  
                 _IOCA2 04B2                   _IOCA3 04B3                   _IOCA4 04B4                   _IOCA5 04B5  
                 _T1GSS 00D1                   _IRCF0 047C                   _IRCF1 047D                   _IRCF2 047E  
                 _LFMOD 047F                   i1l433 0083                   _SFR00 0000                   _SFR01 0001  
                 _SFR10 0010                   _SFR02 0002                   _SFR11 0011                   _SFR03 0003  
                 _SFR12 0012                   _SFR04 0004                   _SFR13 0013                   _SFR05 0005  
                 _SFR14 0014                   _SFR06 0006                   _SFR15 0015                   _SFR07 0007  
                 _SFR16 0016                   _SFR08 0008                   _SFR17 0017                   _SFR09 0009  
                 _SFR18 0018                   _SFR19 0019                   _SFR80 0080                   _SFR81 0081  
                 _SFR0A 000A                   _SFR90 0090                   _SFR82 0082                   _SFR0B 000B  
                 _SFR91 0091                   _SFR83 0083                   _SFR1A 001A                   _SFR0C 000C  
                 _SFR84 0084                   _SFR0D 000D                   _SFR92 0092                   _SFR1B 001B  
                 _SFR93 0093                   _SFR0E 000E                   _SFR85 0085                   _SFR1C 001C  
                 _SFR94 0094                   _SFR86 0086                   _SFR0F 000F                   _SFR1D 001D  
                 _SFR87 0087                   _SFR1E 001E                   _SFR95 0095                   _SFR88 0088  
                 _SFR1F 001F                   _SFR96 0096                   _SFR97 0097                   _SFR89 0089  
                 _SFR98 0098                   _SFR99 0099                   _SFR8A 008A                   _SFR8B 008B  
                 _SFR9A 009A                   _SFR8C 008C                   _SFR8D 008D                   _SFR9B 009B  
                 _SFR9C 009C                   _SFR8E 008E                   _SFR9D 009D                   _SFR8F 008F  
                 _SFR9E 009E                   _SFR9F 009F                   _OSFIE 0462                   _OSFIF 0062  
                 _TMR1H 000F                   _TMR1L 000E                   _PORTA 0005                   _PORTC 0007  
                 _PRSEN 00B7                   _TRISA 0085                   _TRISC 0087                   _WREN1 04E2  
                 _WREN2 04E4                   _WREN3 04E5                   _VRCON 0099                   _WPUA0 04A8  
                 _WPUA1 04A9                   _WPUA2 04AA                   _WPUA4 04AC                   _WPUA5 04AD  
                 _WRERR 04E3                   _nDONE 00F9                   _nPAPU 040F                   _nRAPU 040F  
                 pclath 000A                   status 0003                   wtemp0 007E            __end_of_main 0072  
                ??_main 004B                  _C2SYNC 00D0                  _ADCON0 001F                  _ADCON1 009F  
                _CCP1M0 00A8                  _CCP1M1 00A9                  _CCP1M2 00AA                  _CCP1M3 00AB  
                _CCP1IE 0465                  _CCP1IF 0065                  _ADRESH 001E                  _ADRESL 009E  
                _EEDATA 009A                  _ECCPAS 0017                  _ECCPIE 0465                  _ECCPIF 0065  
                _CCPR1H 0014                  _CCPR1L 0013                  _EECON1 009C                  _EECON2 009D  
                _CMCON0 0019                  _CKCNTI 00D9                  _CMCON1 001A                  _CKMAVG 00DA  
                _HFIOFR 047A                  _T1GINV 0087                  _LFIOFR 0479                  _INTEDG 040E  
                _PCLATH 000A                  _INTCON 000B               ??_DelayMs 0047               ??_DelayUs 0044  
                _SBODEN 0474                  _SBOREN 0474                  _OSCCON 008F                  _TMR1GE 0086  
                _TMR0IE 005D                  _TMR0IF 005A                  _TMR1IE 0460                  _TMR1IF 0060  
                _TMR1CS 0081                  _TMR2IE 0461                  _TMR2IF 0061                  _PSSAC0 00BA  
                _PSSAC1 00BB                  _PSSBD0 00B8                  _PSSBD1 00B9                  _OPTION 0081  
                _TMR1ON 0080                  _TMR2ON 0092                  _WDTCON 0018                  _WDTPS0 00C1  
                _WDTPS1 00C2                  _WDTPS2 00C3                  _WDTPS3 00C4                  _TRISA0 0428  
                _TRISA1 0429                  _TRISA2 042A                  _TRISA3 042B                  _TRISC0 0438  
                _TRISA4 042C                  _TRISC1 0439                  _TRISA5 042D                  _TRISC2 043A  
                _TRISC3 043B                  _TRISC4 043C                  _TRISC5 043D                  _SLVREN 00DC  
                _STATUS 0003                  _SWDTEN 00C0                  _ULPWUE 0475                  saved_w 007E  
          ?_WDT_INITIAL 0040   __end_of_POWER_INITIAL 0056          __pcstackCOMMON 0040              __pmaintext 0056  
            __pintentry 0004                 _CCP1CON 0015                 _ECCPAS0 00BC                 _ECCPAS1 00BD  
               _ECCPAS2 00BE                 _ECCPASE 00BF                 _CKMEAIE 0466                 _CKMEAIF 0066  
               _T1CKPS0 0084                 _T1CKPS1 0085                 _T2CKPS0 0090                 _T2CKPS1 0091  
               _T1OSCEN 0083                 _GO_DONE 00F9                 _MSCKCON 001B                 _OSCTUNE 0090  
               _PWM1CON 0016                 _SOSCPRH 001D                 _SOSCPRL 001C                 _TOUTPS0 0093  
               _TOUTPS1 0094                 _TOUTPS2 0095                 _TOUTPS3 0096                 _DelayMs 0010  
               _DelayUs 0072                 _nT1SYNC 0082            __size_of_ISR 000B               _T2CONbits 0012  
  end_of_initialization 0098    __size_of_WDT_INITIAL 000A               _PORTAbits 0005               _TRISAbits 0085  
   start_initialization 0098             __end_of_ISR 008E  __size_of_POWER_INITIAL 0020                ?_DelayMs 0040  
              ?_DelayUs 0040               __ptext110 008E               __ptext111 0036               __ptext112 0083  
             __ptext113 0000               __ptext107 0000               __ptext108 0010               __ptext109 0072  
     interrupt_function 0004           _POWER_INITIAL 0036                _IOCAbits 0096                DelayMs@a 0049  
              DelayMs@b 004A                DelayUs@a 0046                _PIE1bits 008C                _PCONbits 008E  
              _PIR1bits 000C                _GO_nDONE 00F9                _WPUAbits 0095             DelayMs@Time 0048  
         ??_WDT_INITIAL 0044          ?_POWER_INITIAL 0040             DelayUs@Time 0045        __size_of_DelayMs 0026  
      __size_of_DelayUs 0011              _EECON1bits 009C              _EECON2bits 009D             _MSCKCONbits 001B  
         __size_of_main 001C     __end_of_WDT_INITIAL 0098              _PCLATHbits 000A              _INTCONbits 000B  
       ??_POWER_INITIAL 0044                intlevel1 0000              _OSCCONbits 008F              _OPTION_REG 0081  
           _SOSCPRHbits 001D              _OPTIONbits 0081              _WDTCONbits 0018             _WDT_INITIAL 008E  
            _STATUSbits 0003  
